
sgx_enclave_common.o:     file format elf64-x86-64


Disassembly of section .text._ZNSt17_Function_handlerIFiiPvmEPS1_E9_M_invokeERKSt9_Any_dataOiOS0_Om:

0000000000000000 <_ZNSt17_Function_handlerIFiiPvmEPS1_E9_M_invokeERKSt9_Any_dataOiOS0_Om>:
   0:	f3 0f 1e fa          	endbr64 
   4:	49 89 f0             	mov    %rsi,%r8
   7:	49 89 d1             	mov    %rdx,%r9
   a:	48 8b 07             	mov    (%rdi),%rax
   d:	48 8b 11             	mov    (%rcx),%rdx
  10:	49 8b 31             	mov    (%r9),%rsi
  13:	41 8b 38             	mov    (%r8),%edi
  16:	ff e0                	jmp    *%rax

Disassembly of section .text._ZNSt14_Function_base13_Base_managerIPFiiPvmEE10_M_managerERSt9_Any_dataRKS5_St18_Manager_operation:

0000000000000000 <_ZNSt14_Function_base13_Base_managerIPFiiPvmEE10_M_managerERSt9_Any_dataRKS5_St18_Manager_operation>:
   0:	f3 0f 1e fa          	endbr64 
   4:	83 fa 01             	cmp    $0x1,%edx
   7:	74 0f                	je     18 <_ZNSt14_Function_base13_Base_managerIPFiiPvmEE10_M_managerERSt9_Any_dataRKS5_St18_Manager_operation+0x18>
   9:	83 fa 02             	cmp    $0x2,%edx
   c:	74 22                	je     30 <_ZNSt14_Function_base13_Base_managerIPFiiPvmEE10_M_managerERSt9_Any_dataRKS5_St18_Manager_operation+0x30>
   e:	85 d2                	test   %edx,%edx
  10:	74 0e                	je     20 <_ZNSt14_Function_base13_Base_managerIPFiiPvmEE10_M_managerERSt9_Any_dataRKS5_St18_Manager_operation+0x20>
  12:	31 c0                	xor    %eax,%eax
  14:	c3                   	ret    
  15:	0f 1f 00             	nopl   (%rax)
  18:	48 89 37             	mov    %rsi,(%rdi)
  1b:	31 c0                	xor    %eax,%eax
  1d:	c3                   	ret    
  1e:	66 90                	xchg   %ax,%ax
  20:	48 8b 05 00 00 00 00 	mov    0x0(%rip),%rax        # 27 <_ZNSt14_Function_base13_Base_managerIPFiiPvmEE10_M_managerERSt9_Any_dataRKS5_St18_Manager_operation+0x27>
  27:	48 89 07             	mov    %rax,(%rdi)
  2a:	31 c0                	xor    %eax,%eax
  2c:	c3                   	ret    
  2d:	0f 1f 00             	nopl   (%rax)
  30:	48 8b 06             	mov    (%rsi),%rax
  33:	48 89 07             	mov    %rax,(%rdi)
  36:	31 c0                	xor    %eax,%eax
  38:	c3                   	ret    

Disassembly of section .text._ZNSt17_Function_handlerIFiiPvmiEPFiiS0_mmEE9_M_invokeERKSt9_Any_dataOiOS0_OmS8_:

0000000000000000 <_ZNSt17_Function_handlerIFiiPvmiEPFiiS0_mmEE9_M_invokeERKSt9_Any_dataOiOS0_OmS8_>:
   0:	f3 0f 1e fa          	endbr64 
   4:	49 89 f1             	mov    %rsi,%r9
   7:	49 89 d2             	mov    %rdx,%r10
   a:	49 89 cb             	mov    %rcx,%r11
   d:	48 8b 07             	mov    (%rdi),%rax
  10:	49 63 08             	movslq (%r8),%rcx
  13:	49 8b 13             	mov    (%r11),%rdx
  16:	49 8b 32             	mov    (%r10),%rsi
  19:	41 8b 39             	mov    (%r9),%edi
  1c:	ff e0                	jmp    *%rax

Disassembly of section .text._ZNSt14_Function_base13_Base_managerIPFiiPvmmEE10_M_managerERSt9_Any_dataRKS5_St18_Manager_operation:

0000000000000000 <_ZNSt14_Function_base13_Base_managerIPFiiPvmmEE10_M_managerERSt9_Any_dataRKS5_St18_Manager_operation>:
   0:	f3 0f 1e fa          	endbr64 
   4:	83 fa 01             	cmp    $0x1,%edx
   7:	74 0f                	je     18 <_ZNSt14_Function_base13_Base_managerIPFiiPvmmEE10_M_managerERSt9_Any_dataRKS5_St18_Manager_operation+0x18>
   9:	83 fa 02             	cmp    $0x2,%edx
   c:	74 22                	je     30 <_ZNSt14_Function_base13_Base_managerIPFiiPvmmEE10_M_managerERSt9_Any_dataRKS5_St18_Manager_operation+0x30>
   e:	85 d2                	test   %edx,%edx
  10:	74 0e                	je     20 <_ZNSt14_Function_base13_Base_managerIPFiiPvmmEE10_M_managerERSt9_Any_dataRKS5_St18_Manager_operation+0x20>
  12:	31 c0                	xor    %eax,%eax
  14:	c3                   	ret    
  15:	0f 1f 00             	nopl   (%rax)
  18:	48 89 37             	mov    %rsi,(%rdi)
  1b:	31 c0                	xor    %eax,%eax
  1d:	c3                   	ret    
  1e:	66 90                	xchg   %ax,%ax
  20:	48 8b 05 00 00 00 00 	mov    0x0(%rip),%rax        # 27 <_ZNSt14_Function_base13_Base_managerIPFiiPvmmEE10_M_managerERSt9_Any_dataRKS5_St18_Manager_operation+0x27>
  27:	48 89 07             	mov    %rax,(%rdi)
  2a:	31 c0                	xor    %eax,%eax
  2c:	c3                   	ret    
  2d:	0f 1f 00             	nopl   (%rax)
  30:	48 8b 06             	mov    (%rsi),%rax
  33:	48 89 07             	mov    %rax,(%rdi)
  36:	31 c0                	xor    %eax,%eax
  38:	c3                   	ret    

Disassembly of section .text.unlikely._ZL10close_filePi:

0000000000000000 <_ZL10close_filePi.cold>:
   0:	48 8d 3d 00 00 00 00 	lea    0x0(%rip),%rdi        # 7 <_ZL10close_filePi.cold+0x7>
   7:	e8 00 00 00 00       	call   c <_ZL10close_filePi.cold+0xc>
   c:	48 89 ef             	mov    %rbp,%rdi
   f:	e8 00 00 00 00       	call   14 <.LC10+0x1>

Disassembly of section .text._ZL10close_filePi:

0000000000000000 <_ZL10close_filePi>:
   0:	55                   	push   %rbp
   1:	48 89 fd             	mov    %rdi,%rbp
   4:	48 8d 3d 00 00 00 00 	lea    0x0(%rip),%rdi        # b <_ZL10close_filePi+0xb>
   b:	e8 00 00 00 00       	call   10 <_ZL10close_filePi+0x10>
  10:	48 89 ef             	mov    %rbp,%rdi
  13:	e8 00 00 00 00       	call   18 <_ZL10close_filePi+0x18>
  18:	48 8d 3d 00 00 00 00 	lea    0x0(%rip),%rdi        # 1f <_ZL10close_filePi+0x1f>
  1f:	e8 00 00 00 00       	call   24 <_ZL10close_filePi+0x24>
  24:	5d                   	pop    %rbp
  25:	c3                   	ret    
  26:	f3 0f 1e fa          	endbr64 
  2a:	48 89 c5             	mov    %rax,%rbp
  2d:	e9 00 00 00 00       	jmp    32 <.LC11+0xc>

Disassembly of section .text._ZL37get_enclave_base_address_from_addressPv:

0000000000000000 <_ZL37get_enclave_base_address_from_addressPv>:
   0:	41 54                	push   %r12
   2:	55                   	push   %rbp
   3:	48 8d 2d 00 00 00 00 	lea    0x0(%rip),%rbp        # a <_ZL37get_enclave_base_address_from_addressPv+0xa>
   a:	53                   	push   %rbx
   b:	48 89 fb             	mov    %rdi,%rbx
   e:	48 8d 3d 00 00 00 00 	lea    0x0(%rip),%rdi        # 15 <_ZL37get_enclave_base_address_from_addressPv+0x15>
  15:	e8 00 00 00 00       	call   1a <_ZL37get_enclave_base_address_from_addressPv+0x1a>
  1a:	48 8b 3d 00 00 00 00 	mov    0x0(%rip),%rdi        # 21 <_ZL37get_enclave_base_address_from_addressPv+0x21>
  21:	48 39 ef             	cmp    %rbp,%rdi
  24:	74 2c                	je     52 <_ZL37get_enclave_base_address_from_addressPv+0x52>
  26:	66 2e 0f 1f 84 00 00 	cs nopw 0x0(%rax,%rax,1)
  2d:	00 00 00 
  30:	4c 8b 67 20          	mov    0x20(%rdi),%r12
  34:	48 8b 47 28          	mov    0x28(%rdi),%rax
  38:	49 39 dc             	cmp    %rbx,%r12
  3b:	77 08                	ja     45 <_ZL37get_enclave_base_address_from_addressPv+0x45>
  3d:	4c 01 e0             	add    %r12,%rax
  40:	48 39 d8             	cmp    %rbx,%rax
  43:	77 10                	ja     55 <_ZL37get_enclave_base_address_from_addressPv+0x55>
  45:	e8 00 00 00 00       	call   4a <_ZL37get_enclave_base_address_from_addressPv+0x4a>
  4a:	48 89 c7             	mov    %rax,%rdi
  4d:	48 39 e8             	cmp    %rbp,%rax
  50:	75 de                	jne    30 <_ZL37get_enclave_base_address_from_addressPv+0x30>
  52:	45 31 e4             	xor    %r12d,%r12d
  55:	48 8d 3d 00 00 00 00 	lea    0x0(%rip),%rdi        # 5c <_ZL37get_enclave_base_address_from_addressPv+0x5c>
  5c:	e8 00 00 00 00       	call   61 <_ZL37get_enclave_base_address_from_addressPv+0x61>
  61:	4c 89 e0             	mov    %r12,%rax
  64:	5b                   	pop    %rbx
  65:	5d                   	pop    %rbp
  66:	41 5c                	pop    %r12
  68:	c3                   	ret    

Disassembly of section .text._ZN5MutexD2Ev:

0000000000000000 <_ZN5MutexD1Ev>:
   0:	f3 0f 1e fa          	endbr64 
   4:	48 83 ec 08          	sub    $0x8,%rsp
   8:	e8 00 00 00 00       	call   d <_ZN5MutexD1Ev+0xd>
   d:	48 83 c4 08          	add    $0x8,%rsp
  11:	c3                   	ret    

Disassembly of section .text._ZL13emodpr_legacyiPvmm:

0000000000000000 <_ZL13emodpr_legacyiPvmm>:
   0:	f3 0f 1e fa          	endbr64 
   4:	48 83 ec 28          	sub    $0x28,%rsp
   8:	48 c1 ea 0c          	shr    $0xc,%rdx
   c:	64 48 8b 04 25 28 00 	mov    %fs:0x28,%rax
  13:	00 00 
  15:	48 89 44 24 18       	mov    %rax,0x18(%rsp)
  1a:	31 c0                	xor    %eax,%eax
  1c:	49 89 e0             	mov    %rsp,%r8
  1f:	48 89 34 24          	mov    %rsi,(%rsp)
  23:	be 09 a4 18 40       	mov    $0x4018a409,%esi
  28:	89 54 24 08          	mov    %edx,0x8(%rsp)
  2c:	4c 89 c2             	mov    %r8,%rdx
  2f:	c7 44 24 0c 00 00 00 	movl   $0x0,0xc(%rsp)
  36:	00 
  37:	48 89 4c 24 10       	mov    %rcx,0x10(%rsp)
  3c:	e8 00 00 00 00       	call   41 <_ZL13emodpr_legacyiPvmm+0x41>
  41:	85 c0                	test   %eax,%eax
  43:	74 07                	je     4c <_ZL13emodpr_legacyiPvmm+0x4c>
  45:	e8 00 00 00 00       	call   4a <_ZL13emodpr_legacyiPvmm+0x4a>
  4a:	8b 00                	mov    (%rax),%eax
  4c:	48 8b 4c 24 18       	mov    0x18(%rsp),%rcx
  51:	64 48 33 0c 25 28 00 	xor    %fs:0x28,%rcx
  58:	00 00 
  5a:	75 05                	jne    61 <_ZL13emodpr_legacyiPvmm+0x61>
  5c:	48 83 c4 28          	add    $0x28,%rsp
  60:	c3                   	ret    
  61:	e8 00 00 00 00       	call   66 <.LC11+0x40>

Disassembly of section .text._ZL12mktcs_legacyiPvm:

0000000000000000 <_ZL12mktcs_legacyiPvm>:
   0:	f3 0f 1e fa          	endbr64 
   4:	48 83 ec 28          	sub    $0x28,%rsp
   8:	64 48 8b 04 25 28 00 	mov    %fs:0x28,%rax
   f:	00 00 
  11:	48 89 44 24 18       	mov    %rax,0x18(%rsp)
  16:	31 c0                	xor    %eax,%eax
  18:	b8 16 00 00 00       	mov    $0x16,%eax
  1d:	48 81 fa 00 10 00 00 	cmp    $0x1000,%rdx
  24:	74 1a                	je     40 <_ZL12mktcs_legacyiPvm+0x40>
  26:	48 8b 4c 24 18       	mov    0x18(%rsp),%rcx
  2b:	64 48 33 0c 25 28 00 	xor    %fs:0x28,%rcx
  32:	00 00 
  34:	75 3a                	jne    70 <_ZL12mktcs_legacyiPvm+0x70>
  36:	48 83 c4 28          	add    $0x28,%rsp
  3a:	c3                   	ret    
  3b:	0f 1f 44 00 00       	nopl   0x0(%rax,%rax,1)
  40:	48 89 34 24          	mov    %rsi,(%rsp)
  44:	31 c0                	xor    %eax,%eax
  46:	48 89 e2             	mov    %rsp,%rdx
  49:	be 0a a4 10 40       	mov    $0x4010a40a,%esi
  4e:	c7 44 24 0c 00 00 00 	movl   $0x0,0xc(%rsp)
  55:	00 
  56:	c7 44 24 08 01 00 00 	movl   $0x1,0x8(%rsp)
  5d:	00 
  5e:	e8 00 00 00 00       	call   63 <_ZL12mktcs_legacyiPvm+0x63>
  63:	85 c0                	test   %eax,%eax
  65:	74 bf                	je     26 <_ZL12mktcs_legacyiPvm+0x26>
  67:	e8 00 00 00 00       	call   6c <_ZL12mktcs_legacyiPvm+0x6c>
  6c:	8b 00                	mov    (%rax),%eax
  6e:	eb b6                	jmp    26 <_ZL12mktcs_legacyiPvm+0x26>
  70:	e8 00 00 00 00       	call   75 <.LC11+0x4f>

Disassembly of section .text._ZL16error_driver2apiii.part.0:

0000000000000000 <_ZL16error_driver2apiii.part.0>:
   0:	83 ff 11             	cmp    $0x11,%edi
   3:	74 6b                	je     70 <_ZL16error_driver2apiii.part.0+0x70>
   5:	7f 51                	jg     58 <_ZL16error_driver2apiii.part.0+0x58>
   7:	b8 0a 00 00 00       	mov    $0xa,%eax
   c:	83 ff 0c             	cmp    $0xc,%edi
   f:	74 7f                	je     90 <_ZL16error_driver2apiii.part.0+0x90>
  11:	83 ff 0d             	cmp    $0xd,%edi
  14:	75 7b                	jne    91 <_ZL16error_driver2apiii.part.0+0x91>
  16:	48 83 ec 08          	sub    $0x8,%rsp
  1a:	48 83 3d 00 00 00 00 	cmpq   $0x0,0x0(%rip)        # 22 <_ZL16error_driver2apiii.part.0+0x22>
  21:	00 
  22:	41 b8 0a 01 00 00    	mov    $0x10a,%r8d
  28:	48 8d 0d 00 00 00 00 	lea    0x0(%rip),%rcx        # 2f <_ZL16error_driver2apiii.part.0+0x2f>
  2f:	48 8d 15 00 00 00 00 	lea    0x0(%rip),%rdx        # 36 <_ZL16error_driver2apiii.part.0+0x36>
  36:	48 8d 35 00 00 00 00 	lea    0x0(%rip),%rsi        # 3d <_ZL16error_driver2apiii.part.0+0x3d>
  3d:	74 41                	je     80 <_ZL16error_driver2apiii.part.0+0x80>
  3f:	31 c0                	xor    %eax,%eax
  41:	bf 01 00 00 00       	mov    $0x1,%edi
  46:	e8 00 00 00 00       	call   4b <_ZL16error_driver2apiii.part.0+0x4b>
  4b:	b8 06 00 00 00       	mov    $0x6,%eax
  50:	48 83 c4 08          	add    $0x8,%rsp
  54:	c3                   	ret    
  55:	0f 1f 00             	nopl   (%rax)
  58:	83 ff 16             	cmp    $0x16,%edi
  5b:	ba 09 00 00 00       	mov    $0x9,%edx
  60:	b8 01 10 00 00       	mov    $0x1001,%eax
  65:	0f 44 c2             	cmove  %edx,%eax
  68:	c3                   	ret    
  69:	0f 1f 80 00 00 00 00 	nopl   0x0(%rax)
  70:	b8 0d 00 00 00       	mov    $0xd,%eax
  75:	c3                   	ret    
  76:	66 2e 0f 1f 84 00 00 	cs nopw 0x0(%rax,%rax,1)
  7d:	00 00 00 
  80:	31 c0                	xor    %eax,%eax
  82:	31 ff                	xor    %edi,%edi
  84:	e8 00 00 00 00       	call   89 <_ZL16error_driver2apiii.part.0+0x89>
  89:	b8 06 00 00 00       	mov    $0x6,%eax
  8e:	eb c0                	jmp    50 <_ZL16error_driver2apiii.part.0+0x50>
  90:	c3                   	ret    
  91:	b8 01 10 00 00       	mov    $0x1001,%eax
  96:	c3                   	ret    

Disassembly of section .text._ZL16error_driver2apiii:

0000000000000000 <_ZL16error_driver2apiii>:
   0:	83 ff ff             	cmp    $0xffffffff,%edi
   3:	0f 84 af 00 00 00    	je     b8 <_ZL16error_driver2apiii+0xb8>
   9:	83 ff 08             	cmp    $0x8,%edi
   c:	0f 84 ae 00 00 00    	je     c0 <_ZL16error_driver2apiii+0xc0>
  12:	7f 1c                	jg     30 <_ZL16error_driver2apiii+0x30>
  14:	b8 04 00 00 00       	mov    $0x4,%eax
  19:	83 ff 02             	cmp    $0x2,%edi
  1c:	74 0a                	je     28 <_ZL16error_driver2apiii+0x28>
  1e:	b8 05 00 00 00       	mov    $0x5,%eax
  23:	83 ff 04             	cmp    $0x4,%edi
  26:	75 60                	jne    88 <_ZL16error_driver2apiii+0x88>
  28:	c3                   	ret    
  29:	0f 1f 80 00 00 00 00 	nopl   0x0(%rax)
  30:	b8 08 00 00 00       	mov    $0x8,%eax
  35:	81 ff 00 00 00 40    	cmp    $0x40000000,%edi
  3b:	74 eb                	je     28 <_ZL16error_driver2apiii+0x28>
  3d:	81 ff 02 00 00 40    	cmp    $0x40000002,%edi
  43:	75 5b                	jne    a0 <_ZL16error_driver2apiii+0xa0>
  45:	48 83 ec 08          	sub    $0x8,%rsp
  49:	48 83 3d 00 00 00 00 	cmpq   $0x0,0x0(%rip)        # 51 <_ZL16error_driver2apiii+0x51>
  50:	00 
  51:	41 b8 2a 01 00 00    	mov    $0x12a,%r8d
  57:	48 8d 0d 00 00 00 00 	lea    0x0(%rip),%rcx        # 5e <_ZL16error_driver2apiii+0x5e>
  5e:	48 8d 15 00 00 00 00 	lea    0x0(%rip),%rdx        # 65 <_ZL16error_driver2apiii+0x65>
  65:	48 8d 35 00 00 00 00 	lea    0x0(%rip),%rsi        # 6c <_ZL16error_driver2apiii+0x6c>
  6c:	74 62                	je     d0 <_ZL16error_driver2apiii+0xd0>
  6e:	31 c0                	xor    %eax,%eax
  70:	bf 01 00 00 00       	mov    $0x1,%edi
  75:	e8 00 00 00 00       	call   7a <_ZL16error_driver2apiii+0x7a>
  7a:	b8 06 00 00 00       	mov    $0x6,%eax
  7f:	48 83 c4 08          	add    $0x8,%rsp
  83:	c3                   	ret    
  84:	0f 1f 40 00          	nopl   0x0(%rax)
  88:	83 ff 01             	cmp    $0x1,%edi
  8b:	ba 02 00 00 00       	mov    $0x2,%edx
  90:	b8 01 10 00 00       	mov    $0x1001,%eax
  95:	0f 44 c2             	cmove  %edx,%eax
  98:	c3                   	ret    
  99:	0f 1f 80 00 00 00 00 	nopl   0x0(%rax)
  a0:	81 ff 80 00 00 00    	cmp    $0x80,%edi
  a6:	ba 0e 00 00 00       	mov    $0xe,%edx
  ab:	b8 01 10 00 00       	mov    $0x1001,%eax
  b0:	0f 44 c2             	cmove  %edx,%eax
  b3:	c3                   	ret    
  b4:	0f 1f 40 00          	nopl   0x0(%rax)
  b8:	89 f7                	mov    %esi,%edi
  ba:	e9 00 00 00 00       	jmp    bf <_ZL16error_driver2apiii+0xbf>
  bf:	90                   	nop
  c0:	b8 03 00 00 00       	mov    $0x3,%eax
  c5:	c3                   	ret    
  c6:	66 2e 0f 1f 84 00 00 	cs nopw 0x0(%rax,%rax,1)
  cd:	00 00 00 
  d0:	31 c0                	xor    %eax,%eax
  d2:	31 ff                	xor    %edi,%edi
  d4:	e8 00 00 00 00       	call   d9 <_ZL16error_driver2apiii+0xd9>
  d9:	b8 06 00 00 00       	mov    $0x6,%eax
  de:	eb 9f                	jmp    7f <_ZL16error_driver2apiii+0x7f>

Disassembly of section .text._ZL18trim_accept_legacyiPvm:

0000000000000000 <_ZL18trim_accept_legacyiPvm>:
   0:	f3 0f 1e fa          	endbr64 
   4:	48 83 ec 28          	sub    $0x28,%rsp
   8:	48 c1 ea 0c          	shr    $0xc,%rdx
   c:	64 48 8b 04 25 28 00 	mov    %fs:0x28,%rax
  13:	00 00 
  15:	48 89 44 24 18       	mov    %rax,0x18(%rsp)
  1a:	31 c0                	xor    %eax,%eax
  1c:	49 89 e0             	mov    %rsp,%r8
  1f:	48 89 34 24          	mov    %rsi,(%rsp)
  23:	be 0c a4 10 40       	mov    $0x4010a40c,%esi
  28:	89 54 24 08          	mov    %edx,0x8(%rsp)
  2c:	4c 89 c2             	mov    %r8,%rdx
  2f:	c7 44 24 0c 00 00 00 	movl   $0x0,0xc(%rsp)
  36:	00 
  37:	e8 00 00 00 00       	call   3c <_ZL18trim_accept_legacyiPvm+0x3c>
  3c:	85 c0                	test   %eax,%eax
  3e:	74 07                	je     47 <_ZL18trim_accept_legacyiPvm+0x47>
  40:	e8 00 00 00 00       	call   45 <_ZL18trim_accept_legacyiPvm+0x45>
  45:	8b 00                	mov    (%rax),%eax
  47:	48 8b 4c 24 18       	mov    0x18(%rsp),%rcx
  4c:	64 48 33 0c 25 28 00 	xor    %fs:0x28,%rcx
  53:	00 00 
  55:	75 05                	jne    5c <_ZL18trim_accept_legacyiPvm+0x5c>
  57:	48 83 c4 28          	add    $0x28,%rsp
  5b:	c3                   	ret    
  5c:	e8 00 00 00 00       	call   61 <.LC11+0x3b>

Disassembly of section .text._ZL11trim_legacyiPvm:

0000000000000000 <_ZL11trim_legacyiPvm>:
   0:	f3 0f 1e fa          	endbr64 
   4:	48 83 ec 28          	sub    $0x28,%rsp
   8:	48 c1 ea 0c          	shr    $0xc,%rdx
   c:	64 48 8b 04 25 28 00 	mov    %fs:0x28,%rax
  13:	00 00 
  15:	48 89 44 24 18       	mov    %rax,0x18(%rsp)
  1a:	31 c0                	xor    %eax,%eax
  1c:	49 89 e0             	mov    %rsp,%r8
  1f:	48 89 34 24          	mov    %rsi,(%rsp)
  23:	be 0b a4 10 40       	mov    $0x4010a40b,%esi
  28:	89 54 24 08          	mov    %edx,0x8(%rsp)
  2c:	4c 89 c2             	mov    %r8,%rdx
  2f:	c7 44 24 0c 00 00 00 	movl   $0x0,0xc(%rsp)
  36:	00 
  37:	e8 00 00 00 00       	call   3c <_ZL11trim_legacyiPvm+0x3c>
  3c:	85 c0                	test   %eax,%eax
  3e:	74 07                	je     47 <_ZL11trim_legacyiPvm+0x47>
  40:	e8 00 00 00 00       	call   45 <_ZL11trim_legacyiPvm+0x45>
  45:	8b 00                	mov    (%rax),%eax
  47:	48 8b 4c 24 18       	mov    0x18(%rsp),%rcx
  4c:	64 48 33 0c 25 28 00 	xor    %fs:0x28,%rcx
  53:	00 00 
  55:	75 05                	jne    5c <_ZL11trim_legacyiPvm+0x5c>
  57:	48 83 c4 28          	add    $0x28,%rsp
  5b:	c3                   	ret    
  5c:	e8 00 00 00 00       	call   61 <.LC11+0x3b>

Disassembly of section .text.unlikely._ZL12enclave_finiv:

0000000000000000 <_ZL12enclave_finiv.cold>:
   0:	48 8d 3d 00 00 00 00 	lea    0x0(%rip),%rdi        # 7 <_ZL12enclave_finiv.cold+0x7>
   7:	e8 00 00 00 00       	call   c <_ZL12enclave_finiv.cold+0xc>
   c:	48 89 ef             	mov    %rbp,%rdi
   f:	e8 00 00 00 00       	call   14 <.LC10+0x1>

Disassembly of section .text.exit._ZL12enclave_finiv:

0000000000000000 <_ZL12enclave_finiv>:
   0:	f3 0f 1e fa          	endbr64 
   4:	55                   	push   %rbp
   5:	48 8d 3d 00 00 00 00 	lea    0x0(%rip),%rdi        # c <_ZL12enclave_finiv+0xc>
   c:	e8 00 00 00 00       	call   11 <_ZL12enclave_finiv+0x11>
  11:	48 8d 3d 00 00 00 00 	lea    0x0(%rip),%rdi        # 18 <_ZL12enclave_finiv+0x18>
  18:	e8 00 00 00 00       	call   1d <_ZL12enclave_finiv+0x1d>
  1d:	48 8d 3d 00 00 00 00 	lea    0x0(%rip),%rdi        # 24 <_ZL12enclave_finiv+0x24>
  24:	c7 05 00 00 00 00 00 	movl   $0x0,0x0(%rip)        # 2e <_ZL12enclave_finiv+0x2e>
  2b:	00 00 00 
  2e:	e8 00 00 00 00       	call   33 <_ZL12enclave_finiv+0x33>
  33:	48 8d 3d 00 00 00 00 	lea    0x0(%rip),%rdi        # 3a <_ZL12enclave_finiv+0x3a>
  3a:	e8 00 00 00 00       	call   3f <_ZL12enclave_finiv+0x3f>
  3f:	48 8b 3d 00 00 00 00 	mov    0x0(%rip),%rdi        # 46 <_ZL12enclave_finiv+0x46>
  46:	48 85 ff             	test   %rdi,%rdi
  49:	74 10                	je     5b <_ZL12enclave_finiv+0x5b>
  4b:	e8 00 00 00 00       	call   50 <_ZL12enclave_finiv+0x50>
  50:	48 c7 05 00 00 00 00 	movq   $0x0,0x0(%rip)        # 5b <_ZL12enclave_finiv+0x5b>
  57:	00 00 00 00 
  5b:	48 8d 3d 00 00 00 00 	lea    0x0(%rip),%rdi        # 62 <_ZL12enclave_finiv+0x62>
  62:	e8 00 00 00 00       	call   67 <_ZL12enclave_finiv+0x67>
  67:	5d                   	pop    %rbp
  68:	c3                   	ret    
  69:	f3 0f 1e fa          	endbr64 
  6d:	48 89 c5             	mov    %rax,%rbp
  70:	e9 00 00 00 00       	jmp    75 <.LC11+0x4f>

Disassembly of section .text.enclave_get_information:

0000000000000000 <enclave_get_information>:
   0:	f3 0f 1e fa          	endbr64 
   4:	4d 85 c0             	test   %r8,%r8
   7:	74 07                	je     10 <enclave_get_information+0x10>
   9:	41 c7 00 01 00 00 00 	movl   $0x1,(%r8)
  10:	31 c0                	xor    %eax,%eax
  12:	c3                   	ret    

Disassembly of section .text.enclave_set_information:

0000000000000000 <enclave_set_information>:
   0:	f3 0f 1e fa          	endbr64 
   4:	4d 85 c0             	test   %r8,%r8
   7:	74 07                	je     10 <enclave_set_information+0x10>
   9:	41 c7 00 01 00 00 00 	movl   $0x1,(%r8)
  10:	31 c0                	xor    %eax,%eax
  12:	c3                   	ret    

Disassembly of section .text.enclave_get_features:

0000000000000000 <enclave_get_features>:
   0:	f3 0f 1e fa          	endbr64 
   4:	41 54                	push   %r12
   6:	55                   	push   %rbp
   7:	31 ed                	xor    %ebp,%ebp
   9:	53                   	push   %rbx
   a:	89 e9                	mov    %ebp,%ecx
   c:	48 83 ec 40          	sub    $0x40,%rsp
  10:	64 48 8b 04 25 28 00 	mov    %fs:0x28,%rax
  17:	00 00 
  19:	48 89 44 24 38       	mov    %rax,0x38(%rsp)
  1e:	31 c0                	xor    %eax,%eax
  20:	89 e8                	mov    %ebp,%eax
  22:	c7 44 24 08 ff ff ff 	movl   $0xffffffff,0x8(%rsp)
  29:	ff 
  2a:	c7 44 24 0c 00 00 00 	movl   $0x0,0xc(%rsp)
  31:	00 
  32:	0f a2                	cpuid  
  34:	83 f8 11             	cmp    $0x11,%eax
  37:	7f 27                	jg     60 <enclave_get_features+0x60>
  39:	45 31 e4             	xor    %r12d,%r12d
  3c:	48 8b 44 24 38       	mov    0x38(%rsp),%rax
  41:	64 48 33 04 25 28 00 	xor    %fs:0x28,%rax
  48:	00 00 
  4a:	0f 85 9f 00 00 00    	jne    ef <enclave_get_features+0xef>
  50:	48 83 c4 40          	add    $0x40,%rsp
  54:	44 89 e0             	mov    %r12d,%eax
  57:	5b                   	pop    %rbx
  58:	5d                   	pop    %rbp
  59:	41 5c                	pop    %r12
  5b:	c3                   	ret    
  5c:	0f 1f 40 00          	nopl   0x0(%rax)
  60:	48 8d 7c 24 0c       	lea    0xc(%rsp),%rdi
  65:	e8 00 00 00 00       	call   6a <enclave_get_features+0x6a>
  6a:	84 c0                	test   %al,%al
  6c:	74 cb                	je     39 <enclave_get_features+0x39>
  6e:	b8 12 00 00 00       	mov    $0x12,%eax
  73:	89 e9                	mov    %ebp,%ecx
  75:	0f a2                	cpuid  
  77:	41 89 c4             	mov    %eax,%r12d
  7a:	41 83 e4 01          	and    $0x1,%r12d
  7e:	a8 02                	test   $0x2,%al
  80:	74 ba                	je     3c <enclave_get_features+0x3c>
  82:	83 7c 24 0c 01       	cmpl   $0x1,0xc(%rsp)
  87:	75 b3                	jne    3c <enclave_get_features+0x3c>
  89:	48 8d 6c 24 08       	lea    0x8(%rsp),%rbp
  8e:	bf 01 00 00 00       	mov    $0x1,%edi
  93:	48 89 ee             	mov    %rbp,%rsi
  96:	e8 00 00 00 00       	call   9b <enclave_get_features+0x9b>
  9b:	8b 7c 24 08          	mov    0x8(%rsp),%edi
  9f:	66 0f ef c0          	pxor   %xmm0,%xmm0
  a3:	31 c0                	xor    %eax,%eax
  a5:	48 8d 54 24 10       	lea    0x10(%rsp),%rdx
  aa:	be 05 a4 28 c0       	mov    $0xc028a405,%esi
  af:	0f 29 44 24 10       	movaps %xmm0,0x10(%rsp)
  b4:	48 c7 44 24 30 00 00 	movq   $0x0,0x30(%rsp)
  bb:	00 00 
  bd:	0f 29 44 24 20       	movaps %xmm0,0x20(%rsp)
  c2:	e8 00 00 00 00       	call   c7 <enclave_get_features+0xc7>
  c7:	48 89 ef             	mov    %rbp,%rdi
  ca:	89 c3                	mov    %eax,%ebx
  cc:	e8 00 00 00 00       	call   d1 <enclave_get_features+0xd1>
  d1:	83 fb ff             	cmp    $0xffffffff,%ebx
  d4:	74 0a                	je     e0 <enclave_get_features+0xe0>
  d6:	41 83 cc 02          	or     $0x2,%r12d
  da:	e9 5d ff ff ff       	jmp    3c <enclave_get_features+0x3c>
  df:	90                   	nop
  e0:	e8 00 00 00 00       	call   e5 <enclave_get_features+0xe5>
  e5:	83 38 19             	cmpl   $0x19,(%rax)
  e8:	75 ec                	jne    d6 <enclave_get_features+0xd6>
  ea:	e9 4d ff ff ff       	jmp    3c <enclave_get_features+0x3c>
  ef:	e8 00 00 00 00       	call   f4 <.LC11+0xce>

Disassembly of section .text._ZNSt8_Rb_treeIPvSt4pairIKS0_iESt10_Select1stIS3_ESt4lessIS0_ESaIS3_EE8_M_eraseEPSt13_Rb_tree_nodeIS3_E:

0000000000000000 <_ZNSt8_Rb_treeIPvSt4pairIKS0_iESt10_Select1stIS3_ESt4lessIS0_ESaIS3_EE8_M_eraseEPSt13_Rb_tree_nodeIS3_E>:
   0:	f3 0f 1e fa          	endbr64 
   4:	48 85 f6             	test   %rsi,%rsi
   7:	74 37                	je     40 <_ZNSt8_Rb_treeIPvSt4pairIKS0_iESt10_Select1stIS3_ESt4lessIS0_ESaIS3_EE8_M_eraseEPSt13_Rb_tree_nodeIS3_E+0x40>
   9:	55                   	push   %rbp
   a:	48 89 fd             	mov    %rdi,%rbp
   d:	53                   	push   %rbx
   e:	48 89 f3             	mov    %rsi,%rbx
  11:	48 83 ec 08          	sub    $0x8,%rsp
  15:	48 8b 73 18          	mov    0x18(%rbx),%rsi
  19:	48 89 ef             	mov    %rbp,%rdi
  1c:	e8 00 00 00 00       	call   21 <_ZNSt8_Rb_treeIPvSt4pairIKS0_iESt10_Select1stIS3_ESt4lessIS0_ESaIS3_EE8_M_eraseEPSt13_Rb_tree_nodeIS3_E+0x21>
  21:	48 89 df             	mov    %rbx,%rdi
  24:	48 8b 5b 10          	mov    0x10(%rbx),%rbx
  28:	e8 00 00 00 00       	call   2d <_ZNSt8_Rb_treeIPvSt4pairIKS0_iESt10_Select1stIS3_ESt4lessIS0_ESaIS3_EE8_M_eraseEPSt13_Rb_tree_nodeIS3_E+0x2d>
  2d:	48 85 db             	test   %rbx,%rbx
  30:	75 e3                	jne    15 <_ZNSt8_Rb_treeIPvSt4pairIKS0_iESt10_Select1stIS3_ESt4lessIS0_ESaIS3_EE8_M_eraseEPSt13_Rb_tree_nodeIS3_E+0x15>
  32:	48 83 c4 08          	add    $0x8,%rsp
  36:	5b                   	pop    %rbx
  37:	5d                   	pop    %rbp
  38:	c3                   	ret    
  39:	0f 1f 80 00 00 00 00 	nopl   0x0(%rax)
  40:	c3                   	ret    

Disassembly of section .text._ZNSt3mapIPviSt4lessIS0_ESaISt4pairIKS0_iEEED2Ev:

0000000000000000 <_ZNSt3mapIPviSt4lessIS0_ESaISt4pairIKS0_iEEED1Ev>:
   0:	f3 0f 1e fa          	endbr64 
   4:	48 8b 77 10          	mov    0x10(%rdi),%rsi
   8:	e9 00 00 00 00       	jmp    d <_ZNSt3mapIPviSt4lessIS0_ESaISt4pairIKS0_iEEED1Ev+0xd>

Disassembly of section .text._ZNSt8_Rb_treeIPvSt4pairIKS0_mESt10_Select1stIS3_ESt4lessIS0_ESaIS3_EE8_M_eraseEPSt13_Rb_tree_nodeIS3_E:

0000000000000000 <_ZNSt8_Rb_treeIPvSt4pairIKS0_mESt10_Select1stIS3_ESt4lessIS0_ESaIS3_EE8_M_eraseEPSt13_Rb_tree_nodeIS3_E>:
   0:	f3 0f 1e fa          	endbr64 
   4:	48 85 f6             	test   %rsi,%rsi
   7:	74 37                	je     40 <_ZNSt8_Rb_treeIPvSt4pairIKS0_mESt10_Select1stIS3_ESt4lessIS0_ESaIS3_EE8_M_eraseEPSt13_Rb_tree_nodeIS3_E+0x40>
   9:	55                   	push   %rbp
   a:	48 89 fd             	mov    %rdi,%rbp
   d:	53                   	push   %rbx
   e:	48 89 f3             	mov    %rsi,%rbx
  11:	48 83 ec 08          	sub    $0x8,%rsp
  15:	48 8b 73 18          	mov    0x18(%rbx),%rsi
  19:	48 89 ef             	mov    %rbp,%rdi
  1c:	e8 00 00 00 00       	call   21 <_ZNSt8_Rb_treeIPvSt4pairIKS0_mESt10_Select1stIS3_ESt4lessIS0_ESaIS3_EE8_M_eraseEPSt13_Rb_tree_nodeIS3_E+0x21>
  21:	48 89 df             	mov    %rbx,%rdi
  24:	48 8b 5b 10          	mov    0x10(%rbx),%rbx
  28:	e8 00 00 00 00       	call   2d <_ZNSt8_Rb_treeIPvSt4pairIKS0_mESt10_Select1stIS3_ESt4lessIS0_ESaIS3_EE8_M_eraseEPSt13_Rb_tree_nodeIS3_E+0x2d>
  2d:	48 85 db             	test   %rbx,%rbx
  30:	75 e3                	jne    15 <_ZNSt8_Rb_treeIPvSt4pairIKS0_mESt10_Select1stIS3_ESt4lessIS0_ESaIS3_EE8_M_eraseEPSt13_Rb_tree_nodeIS3_E+0x15>
  32:	48 83 c4 08          	add    $0x8,%rsp
  36:	5b                   	pop    %rbx
  37:	5d                   	pop    %rbp
  38:	c3                   	ret    
  39:	0f 1f 80 00 00 00 00 	nopl   0x0(%rax)
  40:	c3                   	ret    

Disassembly of section .text._ZNSt3mapIPvmSt4lessIS0_ESaISt4pairIKS0_mEEED2Ev:

0000000000000000 <_ZNSt3mapIPvmSt4lessIS0_ESaISt4pairIKS0_mEEED1Ev>:
   0:	f3 0f 1e fa          	endbr64 
   4:	48 8b 77 10          	mov    0x10(%rdi),%rsi
   8:	e9 00 00 00 00       	jmp    d <_ZNSt3mapIPvmSt4lessIS0_ESaISt4pairIKS0_mEEED1Ev+0xd>

Disassembly of section .text._ZNSt8_Rb_treeIPvSt4pairIKS0_bESt10_Select1stIS3_ESt4lessIS0_ESaIS3_EE8_M_eraseEPSt13_Rb_tree_nodeIS3_E:

0000000000000000 <_ZNSt8_Rb_treeIPvSt4pairIKS0_bESt10_Select1stIS3_ESt4lessIS0_ESaIS3_EE8_M_eraseEPSt13_Rb_tree_nodeIS3_E>:
   0:	f3 0f 1e fa          	endbr64 
   4:	48 85 f6             	test   %rsi,%rsi
   7:	74 37                	je     40 <_ZNSt8_Rb_treeIPvSt4pairIKS0_bESt10_Select1stIS3_ESt4lessIS0_ESaIS3_EE8_M_eraseEPSt13_Rb_tree_nodeIS3_E+0x40>
   9:	55                   	push   %rbp
   a:	48 89 fd             	mov    %rdi,%rbp
   d:	53                   	push   %rbx
   e:	48 89 f3             	mov    %rsi,%rbx
  11:	48 83 ec 08          	sub    $0x8,%rsp
  15:	48 8b 73 18          	mov    0x18(%rbx),%rsi
  19:	48 89 ef             	mov    %rbp,%rdi
  1c:	e8 00 00 00 00       	call   21 <_ZNSt8_Rb_treeIPvSt4pairIKS0_bESt10_Select1stIS3_ESt4lessIS0_ESaIS3_EE8_M_eraseEPSt13_Rb_tree_nodeIS3_E+0x21>
  21:	48 89 df             	mov    %rbx,%rdi
  24:	48 8b 5b 10          	mov    0x10(%rbx),%rbx
  28:	e8 00 00 00 00       	call   2d <_ZNSt8_Rb_treeIPvSt4pairIKS0_bESt10_Select1stIS3_ESt4lessIS0_ESaIS3_EE8_M_eraseEPSt13_Rb_tree_nodeIS3_E+0x2d>
  2d:	48 85 db             	test   %rbx,%rbx
  30:	75 e3                	jne    15 <_ZNSt8_Rb_treeIPvSt4pairIKS0_bESt10_Select1stIS3_ESt4lessIS0_ESaIS3_EE8_M_eraseEPSt13_Rb_tree_nodeIS3_E+0x15>
  32:	48 83 c4 08          	add    $0x8,%rsp
  36:	5b                   	pop    %rbx
  37:	5d                   	pop    %rbp
  38:	c3                   	ret    
  39:	0f 1f 80 00 00 00 00 	nopl   0x0(%rax)
  40:	c3                   	ret    

Disassembly of section .text._ZNSt3mapIPvbSt4lessIS0_ESaISt4pairIKS0_bEEED2Ev:

0000000000000000 <_ZNSt3mapIPvbSt4lessIS0_ESaISt4pairIKS0_bEEED1Ev>:
   0:	f3 0f 1e fa          	endbr64 
   4:	48 8b 77 10          	mov    0x10(%rdi),%rsi
   8:	e9 00 00 00 00       	jmp    d <_ZNSt3mapIPvbSt4lessIS0_ESaISt4pairIKS0_bEEED1Ev+0xd>

Disassembly of section .text._ZNSt8_Rb_treeIPvSt4pairIKS0_13_attributes_tESt10_Select1stIS4_ESt4lessIS0_ESaIS4_EE8_M_eraseEPSt13_Rb_tree_nodeIS4_E:

0000000000000000 <_ZNSt8_Rb_treeIPvSt4pairIKS0_13_attributes_tESt10_Select1stIS4_ESt4lessIS0_ESaIS4_EE8_M_eraseEPSt13_Rb_tree_nodeIS4_E>:
   0:	f3 0f 1e fa          	endbr64 
   4:	48 85 f6             	test   %rsi,%rsi
   7:	74 37                	je     40 <_ZNSt8_Rb_treeIPvSt4pairIKS0_13_attributes_tESt10_Select1stIS4_ESt4lessIS0_ESaIS4_EE8_M_eraseEPSt13_Rb_tree_nodeIS4_E+0x40>
   9:	55                   	push   %rbp
   a:	48 89 fd             	mov    %rdi,%rbp
   d:	53                   	push   %rbx
   e:	48 89 f3             	mov    %rsi,%rbx
  11:	48 83 ec 08          	sub    $0x8,%rsp
  15:	48 8b 73 18          	mov    0x18(%rbx),%rsi
  19:	48 89 ef             	mov    %rbp,%rdi
  1c:	e8 00 00 00 00       	call   21 <_ZNSt8_Rb_treeIPvSt4pairIKS0_13_attributes_tESt10_Select1stIS4_ESt4lessIS0_ESaIS4_EE8_M_eraseEPSt13_Rb_tree_nodeIS4_E+0x21>
  21:	48 89 df             	mov    %rbx,%rdi
  24:	48 8b 5b 10          	mov    0x10(%rbx),%rbx
  28:	e8 00 00 00 00       	call   2d <_ZNSt8_Rb_treeIPvSt4pairIKS0_13_attributes_tESt10_Select1stIS4_ESt4lessIS0_ESaIS4_EE8_M_eraseEPSt13_Rb_tree_nodeIS4_E+0x2d>
  2d:	48 85 db             	test   %rbx,%rbx
  30:	75 e3                	jne    15 <_ZNSt8_Rb_treeIPvSt4pairIKS0_13_attributes_tESt10_Select1stIS4_ESt4lessIS0_ESaIS4_EE8_M_eraseEPSt13_Rb_tree_nodeIS4_E+0x15>
  32:	48 83 c4 08          	add    $0x8,%rsp
  36:	5b                   	pop    %rbx
  37:	5d                   	pop    %rbp
  38:	c3                   	ret    
  39:	0f 1f 80 00 00 00 00 	nopl   0x0(%rax)
  40:	c3                   	ret    

Disassembly of section .text._ZNSt3mapIPv13_attributes_tSt4lessIS0_ESaISt4pairIKS0_S1_EEED2Ev:

0000000000000000 <_ZNSt3mapIPv13_attributes_tSt4lessIS0_ESaISt4pairIKS0_S1_EEED1Ev>:
   0:	f3 0f 1e fa          	endbr64 
   4:	48 8b 77 10          	mov    0x10(%rdi),%rsi
   8:	e9 00 00 00 00       	jmp    d <_ZNSt3mapIPv13_attributes_tSt4lessIS0_ESaISt4pairIKS0_S1_EEED1Ev+0xd>

Disassembly of section .text._ZNSt8_Rb_treeIPvSt4pairIKS0_15enclave_elrangeESt10_Select1stIS4_ESt4lessIS0_ESaIS4_EE8_M_eraseEPSt13_Rb_tree_nodeIS4_E:

0000000000000000 <_ZNSt8_Rb_treeIPvSt4pairIKS0_15enclave_elrangeESt10_Select1stIS4_ESt4lessIS0_ESaIS4_EE8_M_eraseEPSt13_Rb_tree_nodeIS4_E>:
   0:	f3 0f 1e fa          	endbr64 
   4:	48 85 f6             	test   %rsi,%rsi
   7:	74 37                	je     40 <_ZNSt8_Rb_treeIPvSt4pairIKS0_15enclave_elrangeESt10_Select1stIS4_ESt4lessIS0_ESaIS4_EE8_M_eraseEPSt13_Rb_tree_nodeIS4_E+0x40>
   9:	55                   	push   %rbp
   a:	48 89 fd             	mov    %rdi,%rbp
   d:	53                   	push   %rbx
   e:	48 89 f3             	mov    %rsi,%rbx
  11:	48 83 ec 08          	sub    $0x8,%rsp
  15:	48 8b 73 18          	mov    0x18(%rbx),%rsi
  19:	48 89 ef             	mov    %rbp,%rdi
  1c:	e8 00 00 00 00       	call   21 <_ZNSt8_Rb_treeIPvSt4pairIKS0_15enclave_elrangeESt10_Select1stIS4_ESt4lessIS0_ESaIS4_EE8_M_eraseEPSt13_Rb_tree_nodeIS4_E+0x21>
  21:	48 89 df             	mov    %rbx,%rdi
  24:	48 8b 5b 10          	mov    0x10(%rbx),%rbx
  28:	e8 00 00 00 00       	call   2d <_ZNSt8_Rb_treeIPvSt4pairIKS0_15enclave_elrangeESt10_Select1stIS4_ESt4lessIS0_ESaIS4_EE8_M_eraseEPSt13_Rb_tree_nodeIS4_E+0x2d>
  2d:	48 85 db             	test   %rbx,%rbx
  30:	75 e3                	jne    15 <_ZNSt8_Rb_treeIPvSt4pairIKS0_15enclave_elrangeESt10_Select1stIS4_ESt4lessIS0_ESaIS4_EE8_M_eraseEPSt13_Rb_tree_nodeIS4_E+0x15>
  32:	48 83 c4 08          	add    $0x8,%rsp
  36:	5b                   	pop    %rbx
  37:	5d                   	pop    %rbp
  38:	c3                   	ret    
  39:	0f 1f 80 00 00 00 00 	nopl   0x0(%rax)
  40:	c3                   	ret    

Disassembly of section .text._ZNSt3mapIPv15enclave_elrangeSt4lessIS0_ESaISt4pairIKS0_S1_EEED2Ev:

0000000000000000 <_ZNSt3mapIPv15enclave_elrangeSt4lessIS0_ESaISt4pairIKS0_S1_EEED1Ev>:
   0:	f3 0f 1e fa          	endbr64 
   4:	48 8b 77 10          	mov    0x10(%rdi),%rsi
   8:	e9 00 00 00 00       	jmp    d <_ZNSt3mapIPv15enclave_elrangeSt4lessIS0_ESaISt4pairIKS0_S1_EEED1Ev+0xd>

Disassembly of section .text._ZNSt8_Rb_treeIPvSt4pairIKS0_13_mem_region_tESt10_Select1stIS4_ESt4lessIS0_ESaIS4_EE8_M_eraseEPSt13_Rb_tree_nodeIS4_E:

0000000000000000 <_ZNSt8_Rb_treeIPvSt4pairIKS0_13_mem_region_tESt10_Select1stIS4_ESt4lessIS0_ESaIS4_EE8_M_eraseEPSt13_Rb_tree_nodeIS4_E>:
   0:	f3 0f 1e fa          	endbr64 
   4:	48 85 f6             	test   %rsi,%rsi
   7:	74 37                	je     40 <_ZNSt8_Rb_treeIPvSt4pairIKS0_13_mem_region_tESt10_Select1stIS4_ESt4lessIS0_ESaIS4_EE8_M_eraseEPSt13_Rb_tree_nodeIS4_E+0x40>
   9:	55                   	push   %rbp
   a:	48 89 fd             	mov    %rdi,%rbp
   d:	53                   	push   %rbx
   e:	48 89 f3             	mov    %rsi,%rbx
  11:	48 83 ec 08          	sub    $0x8,%rsp
  15:	48 8b 73 18          	mov    0x18(%rbx),%rsi
  19:	48 89 ef             	mov    %rbp,%rdi
  1c:	e8 00 00 00 00       	call   21 <_ZNSt8_Rb_treeIPvSt4pairIKS0_13_mem_region_tESt10_Select1stIS4_ESt4lessIS0_ESaIS4_EE8_M_eraseEPSt13_Rb_tree_nodeIS4_E+0x21>
  21:	48 89 df             	mov    %rbx,%rdi
  24:	48 8b 5b 10          	mov    0x10(%rbx),%rbx
  28:	e8 00 00 00 00       	call   2d <_ZNSt8_Rb_treeIPvSt4pairIKS0_13_mem_region_tESt10_Select1stIS4_ESt4lessIS0_ESaIS4_EE8_M_eraseEPSt13_Rb_tree_nodeIS4_E+0x2d>
  2d:	48 85 db             	test   %rbx,%rbx
  30:	75 e3                	jne    15 <_ZNSt8_Rb_treeIPvSt4pairIKS0_13_mem_region_tESt10_Select1stIS4_ESt4lessIS0_ESaIS4_EE8_M_eraseEPSt13_Rb_tree_nodeIS4_E+0x15>
  32:	48 83 c4 08          	add    $0x8,%rsp
  36:	5b                   	pop    %rbx
  37:	5d                   	pop    %rbp
  38:	c3                   	ret    
  39:	0f 1f 80 00 00 00 00 	nopl   0x0(%rax)
  40:	c3                   	ret    

Disassembly of section .text._ZNSt3mapIPv13_mem_region_tSt4lessIS0_ESaISt4pairIKS0_S1_EEED2Ev:

0000000000000000 <_ZNSt3mapIPv13_mem_region_tSt4lessIS0_ESaISt4pairIKS0_S1_EEED1Ev>:
   0:	f3 0f 1e fa          	endbr64 
   4:	48 8b 77 10          	mov    0x10(%rdi),%rsi
   8:	e9 00 00 00 00       	jmp    d <_ZNSt3mapIPv13_mem_region_tSt4lessIS0_ESaISt4pairIKS0_S1_EEED1Ev+0xd>

Disassembly of section .text._ZNSt8_Rb_treeIPvSt4pairIKS0_mESt10_Select1stIS3_ESt4lessIS0_ESaIS3_EE5eraseERS2_:

0000000000000000 <_ZNSt8_Rb_treeIPvSt4pairIKS0_mESt10_Select1stIS3_ESt4lessIS0_ESaIS3_EE5eraseERS2_>:
   0:	f3 0f 1e fa          	endbr64 
   4:	41 57                	push   %r15
   6:	41 56                	push   %r14
   8:	41 55                	push   %r13
   a:	4c 8d 6f 08          	lea    0x8(%rdi),%r13
   e:	41 54                	push   %r12
  10:	55                   	push   %rbp
  11:	48 89 fd             	mov    %rdi,%rbp
  14:	53                   	push   %rbx
  15:	48 83 ec 08          	sub    $0x8,%rsp
  19:	4c 8b 47 10          	mov    0x10(%rdi),%r8
  1d:	4d 85 c0             	test   %r8,%r8
  20:	0f 84 5a 01 00 00    	je     180 <_ZNSt8_Rb_treeIPvSt4pairIKS0_mESt10_Select1stIS3_ESt4lessIS0_ESaIS3_EE5eraseERS2_+0x180>
  26:	48 8b 0e             	mov    (%rsi),%rcx
  29:	4d 89 ec             	mov    %r13,%r12
  2c:	4c 89 c3             	mov    %r8,%rbx
  2f:	eb 13                	jmp    44 <_ZNSt8_Rb_treeIPvSt4pairIKS0_mESt10_Select1stIS3_ESt4lessIS0_ESaIS3_EE5eraseERS2_+0x44>
  31:	0f 1f 80 00 00 00 00 	nopl   0x0(%rax)
  38:	48 8b 43 18          	mov    0x18(%rbx),%rax
  3c:	48 85 c0             	test   %rax,%rax
  3f:	74 17                	je     58 <_ZNSt8_Rb_treeIPvSt4pairIKS0_mESt10_Select1stIS3_ESt4lessIS0_ESaIS3_EE5eraseERS2_+0x58>
  41:	48 89 c3             	mov    %rax,%rbx
  44:	48 39 4b 20          	cmp    %rcx,0x20(%rbx)
  48:	72 ee                	jb     38 <_ZNSt8_Rb_treeIPvSt4pairIKS0_mESt10_Select1stIS3_ESt4lessIS0_ESaIS3_EE5eraseERS2_+0x38>
  4a:	48 8b 43 10          	mov    0x10(%rbx),%rax
  4e:	76 60                	jbe    b0 <_ZNSt8_Rb_treeIPvSt4pairIKS0_mESt10_Select1stIS3_ESt4lessIS0_ESaIS3_EE5eraseERS2_+0xb0>
  50:	49 89 dc             	mov    %rbx,%r12
  53:	48 85 c0             	test   %rax,%rax
  56:	75 e9                	jne    41 <_ZNSt8_Rb_treeIPvSt4pairIKS0_mESt10_Select1stIS3_ESt4lessIS0_ESaIS3_EE5eraseERS2_+0x41>
  58:	4d 39 e5             	cmp    %r12,%r13
  5b:	0f 94 c0             	sete   %al
  5e:	4c 8b 75 28          	mov    0x28(%rbp),%r14
  62:	4c 39 65 18          	cmp    %r12,0x18(%rbp)
  66:	0f 85 04 01 00 00    	jne    170 <_ZNSt8_Rb_treeIPvSt4pairIKS0_mESt10_Select1stIS3_ESt4lessIS0_ESaIS3_EE5eraseERS2_+0x170>
  6c:	84 c0                	test   %al,%al
  6e:	0f 84 fc 00 00 00    	je     170 <_ZNSt8_Rb_treeIPvSt4pairIKS0_mESt10_Select1stIS3_ESt4lessIS0_ESaIS3_EE5eraseERS2_+0x170>
  74:	4c 89 c6             	mov    %r8,%rsi
  77:	48 89 ef             	mov    %rbp,%rdi
  7a:	e8 00 00 00 00       	call   7f <_ZNSt8_Rb_treeIPvSt4pairIKS0_mESt10_Select1stIS3_ESt4lessIS0_ESaIS3_EE5eraseERS2_+0x7f>
  7f:	48 c7 45 10 00 00 00 	movq   $0x0,0x10(%rbp)
  86:	00 
  87:	4c 89 6d 18          	mov    %r13,0x18(%rbp)
  8b:	4c 89 6d 20          	mov    %r13,0x20(%rbp)
  8f:	48 c7 45 28 00 00 00 	movq   $0x0,0x28(%rbp)
  96:	00 
  97:	48 83 c4 08          	add    $0x8,%rsp
  9b:	4c 89 f0             	mov    %r14,%rax
  9e:	5b                   	pop    %rbx
  9f:	5d                   	pop    %rbp
  a0:	41 5c                	pop    %r12
  a2:	41 5d                	pop    %r13
  a4:	41 5e                	pop    %r14
  a6:	41 5f                	pop    %r15
  a8:	c3                   	ret    
  a9:	0f 1f 80 00 00 00 00 	nopl   0x0(%rax)
  b0:	48 8b 53 18          	mov    0x18(%rbx),%rdx
  b4:	48 85 d2             	test   %rdx,%rdx
  b7:	75 13                	jne    cc <_ZNSt8_Rb_treeIPvSt4pairIKS0_mESt10_Select1stIS3_ESt4lessIS0_ESaIS3_EE5eraseERS2_+0xcc>
  b9:	eb 25                	jmp    e0 <_ZNSt8_Rb_treeIPvSt4pairIKS0_mESt10_Select1stIS3_ESt4lessIS0_ESaIS3_EE5eraseERS2_+0xe0>
  bb:	0f 1f 44 00 00       	nopl   0x0(%rax,%rax,1)
  c0:	49 89 d4             	mov    %rdx,%r12
  c3:	48 8b 52 10          	mov    0x10(%rdx),%rdx
  c7:	48 85 d2             	test   %rdx,%rdx
  ca:	74 14                	je     e0 <_ZNSt8_Rb_treeIPvSt4pairIKS0_mESt10_Select1stIS3_ESt4lessIS0_ESaIS3_EE5eraseERS2_+0xe0>
  cc:	48 39 4a 20          	cmp    %rcx,0x20(%rdx)
  d0:	77 ee                	ja     c0 <_ZNSt8_Rb_treeIPvSt4pairIKS0_mESt10_Select1stIS3_ESt4lessIS0_ESaIS3_EE5eraseERS2_+0xc0>
  d2:	48 8b 52 18          	mov    0x18(%rdx),%rdx
  d6:	48 85 d2             	test   %rdx,%rdx
  d9:	75 f1                	jne    cc <_ZNSt8_Rb_treeIPvSt4pairIKS0_mESt10_Select1stIS3_ESt4lessIS0_ESaIS3_EE5eraseERS2_+0xcc>
  db:	0f 1f 44 00 00       	nopl   0x0(%rax,%rax,1)
  e0:	48 85 c0             	test   %rax,%rax
  e3:	74 12                	je     f7 <_ZNSt8_Rb_treeIPvSt4pairIKS0_mESt10_Select1stIS3_ESt4lessIS0_ESaIS3_EE5eraseERS2_+0xf7>
  e5:	48 39 48 20          	cmp    %rcx,0x20(%rax)
  e9:	72 65                	jb     150 <_ZNSt8_Rb_treeIPvSt4pairIKS0_mESt10_Select1stIS3_ESt4lessIS0_ESaIS3_EE5eraseERS2_+0x150>
  eb:	48 89 c3             	mov    %rax,%rbx
  ee:	48 8b 40 10          	mov    0x10(%rax),%rax
  f2:	48 85 c0             	test   %rax,%rax
  f5:	75 ee                	jne    e5 <_ZNSt8_Rb_treeIPvSt4pairIKS0_mESt10_Select1stIS3_ESt4lessIS0_ESaIS3_EE5eraseERS2_+0xe5>
  f7:	4c 8b 75 28          	mov    0x28(%rbp),%r14
  fb:	48 39 5d 18          	cmp    %rbx,0x18(%rbp)
  ff:	74 5f                	je     160 <_ZNSt8_Rb_treeIPvSt4pairIKS0_mESt10_Select1stIS3_ESt4lessIS0_ESaIS3_EE5eraseERS2_+0x160>
 101:	4c 39 e3             	cmp    %r12,%rbx
 104:	74 6a                	je     170 <_ZNSt8_Rb_treeIPvSt4pairIKS0_mESt10_Select1stIS3_ESt4lessIS0_ESaIS3_EE5eraseERS2_+0x170>
 106:	66 2e 0f 1f 84 00 00 	cs nopw 0x0(%rax,%rax,1)
 10d:	00 00 00 
 110:	48 89 df             	mov    %rbx,%rdi
 113:	49 89 df             	mov    %rbx,%r15
 116:	e8 00 00 00 00       	call   11b <_ZNSt8_Rb_treeIPvSt4pairIKS0_mESt10_Select1stIS3_ESt4lessIS0_ESaIS3_EE5eraseERS2_+0x11b>
 11b:	4c 89 ee             	mov    %r13,%rsi
 11e:	4c 89 ff             	mov    %r15,%rdi
 121:	48 89 c3             	mov    %rax,%rbx
 124:	e8 00 00 00 00       	call   129 <_ZNSt8_Rb_treeIPvSt4pairIKS0_mESt10_Select1stIS3_ESt4lessIS0_ESaIS3_EE5eraseERS2_+0x129>
 129:	48 89 c7             	mov    %rax,%rdi
 12c:	e8 00 00 00 00       	call   131 <_ZNSt8_Rb_treeIPvSt4pairIKS0_mESt10_Select1stIS3_ESt4lessIS0_ESaIS3_EE5eraseERS2_+0x131>
 131:	48 8b 45 28          	mov    0x28(%rbp),%rax
 135:	48 83 e8 01          	sub    $0x1,%rax
 139:	48 89 45 28          	mov    %rax,0x28(%rbp)
 13d:	4c 39 e3             	cmp    %r12,%rbx
 140:	75 ce                	jne    110 <_ZNSt8_Rb_treeIPvSt4pairIKS0_mESt10_Select1stIS3_ESt4lessIS0_ESaIS3_EE5eraseERS2_+0x110>
 142:	49 29 c6             	sub    %rax,%r14
 145:	e9 4d ff ff ff       	jmp    97 <_ZNSt8_Rb_treeIPvSt4pairIKS0_mESt10_Select1stIS3_ESt4lessIS0_ESaIS3_EE5eraseERS2_+0x97>
 14a:	66 0f 1f 44 00 00    	nopw   0x0(%rax,%rax,1)
 150:	48 8b 40 18          	mov    0x18(%rax),%rax
 154:	eb 8a                	jmp    e0 <_ZNSt8_Rb_treeIPvSt4pairIKS0_mESt10_Select1stIS3_ESt4lessIS0_ESaIS3_EE5eraseERS2_+0xe0>
 156:	66 2e 0f 1f 84 00 00 	cs nopw 0x0(%rax,%rax,1)
 15d:	00 00 00 
 160:	4d 39 e5             	cmp    %r12,%r13
 163:	75 9c                	jne    101 <_ZNSt8_Rb_treeIPvSt4pairIKS0_mESt10_Select1stIS3_ESt4lessIS0_ESaIS3_EE5eraseERS2_+0x101>
 165:	e9 0a ff ff ff       	jmp    74 <_ZNSt8_Rb_treeIPvSt4pairIKS0_mESt10_Select1stIS3_ESt4lessIS0_ESaIS3_EE5eraseERS2_+0x74>
 16a:	66 0f 1f 44 00 00    	nopw   0x0(%rax,%rax,1)
 170:	45 31 f6             	xor    %r14d,%r14d
 173:	e9 1f ff ff ff       	jmp    97 <_ZNSt8_Rb_treeIPvSt4pairIKS0_mESt10_Select1stIS3_ESt4lessIS0_ESaIS3_EE5eraseERS2_+0x97>
 178:	0f 1f 84 00 00 00 00 	nopl   0x0(%rax,%rax,1)
 17f:	00 
 180:	4d 89 ec             	mov    %r13,%r12
 183:	b8 01 00 00 00       	mov    $0x1,%eax
 188:	e9 d1 fe ff ff       	jmp    5e <_ZNSt8_Rb_treeIPvSt4pairIKS0_mESt10_Select1stIS3_ESt4lessIS0_ESaIS3_EE5eraseERS2_+0x5e>

Disassembly of section .text._ZNSt8_Rb_treeIPvSt4pairIKS0_bESt10_Select1stIS3_ESt4lessIS0_ESaIS3_EE5eraseERS2_:

0000000000000000 <_ZNSt8_Rb_treeIPvSt4pairIKS0_bESt10_Select1stIS3_ESt4lessIS0_ESaIS3_EE5eraseERS2_>:
   0:	f3 0f 1e fa          	endbr64 
   4:	41 57                	push   %r15
   6:	41 56                	push   %r14
   8:	41 55                	push   %r13
   a:	4c 8d 6f 08          	lea    0x8(%rdi),%r13
   e:	41 54                	push   %r12
  10:	55                   	push   %rbp
  11:	48 89 fd             	mov    %rdi,%rbp
  14:	53                   	push   %rbx
  15:	48 83 ec 08          	sub    $0x8,%rsp
  19:	4c 8b 47 10          	mov    0x10(%rdi),%r8
  1d:	4d 85 c0             	test   %r8,%r8
  20:	0f 84 5a 01 00 00    	je     180 <_ZNSt8_Rb_treeIPvSt4pairIKS0_bESt10_Select1stIS3_ESt4lessIS0_ESaIS3_EE5eraseERS2_+0x180>
  26:	48 8b 0e             	mov    (%rsi),%rcx
  29:	4d 89 ec             	mov    %r13,%r12
  2c:	4c 89 c3             	mov    %r8,%rbx
  2f:	eb 13                	jmp    44 <_ZNSt8_Rb_treeIPvSt4pairIKS0_bESt10_Select1stIS3_ESt4lessIS0_ESaIS3_EE5eraseERS2_+0x44>
  31:	0f 1f 80 00 00 00 00 	nopl   0x0(%rax)
  38:	48 8b 43 18          	mov    0x18(%rbx),%rax
  3c:	48 85 c0             	test   %rax,%rax
  3f:	74 17                	je     58 <_ZNSt8_Rb_treeIPvSt4pairIKS0_bESt10_Select1stIS3_ESt4lessIS0_ESaIS3_EE5eraseERS2_+0x58>
  41:	48 89 c3             	mov    %rax,%rbx
  44:	48 39 4b 20          	cmp    %rcx,0x20(%rbx)
  48:	72 ee                	jb     38 <_ZNSt8_Rb_treeIPvSt4pairIKS0_bESt10_Select1stIS3_ESt4lessIS0_ESaIS3_EE5eraseERS2_+0x38>
  4a:	48 8b 43 10          	mov    0x10(%rbx),%rax
  4e:	76 60                	jbe    b0 <_ZNSt8_Rb_treeIPvSt4pairIKS0_bESt10_Select1stIS3_ESt4lessIS0_ESaIS3_EE5eraseERS2_+0xb0>
  50:	49 89 dc             	mov    %rbx,%r12
  53:	48 85 c0             	test   %rax,%rax
  56:	75 e9                	jne    41 <_ZNSt8_Rb_treeIPvSt4pairIKS0_bESt10_Select1stIS3_ESt4lessIS0_ESaIS3_EE5eraseERS2_+0x41>
  58:	4d 39 e5             	cmp    %r12,%r13
  5b:	0f 94 c0             	sete   %al
  5e:	4c 8b 75 28          	mov    0x28(%rbp),%r14
  62:	4c 39 65 18          	cmp    %r12,0x18(%rbp)
  66:	0f 85 04 01 00 00    	jne    170 <_ZNSt8_Rb_treeIPvSt4pairIKS0_bESt10_Select1stIS3_ESt4lessIS0_ESaIS3_EE5eraseERS2_+0x170>
  6c:	84 c0                	test   %al,%al
  6e:	0f 84 fc 00 00 00    	je     170 <_ZNSt8_Rb_treeIPvSt4pairIKS0_bESt10_Select1stIS3_ESt4lessIS0_ESaIS3_EE5eraseERS2_+0x170>
  74:	4c 89 c6             	mov    %r8,%rsi
  77:	48 89 ef             	mov    %rbp,%rdi
  7a:	e8 00 00 00 00       	call   7f <_ZNSt8_Rb_treeIPvSt4pairIKS0_bESt10_Select1stIS3_ESt4lessIS0_ESaIS3_EE5eraseERS2_+0x7f>
  7f:	48 c7 45 10 00 00 00 	movq   $0x0,0x10(%rbp)
  86:	00 
  87:	4c 89 6d 18          	mov    %r13,0x18(%rbp)
  8b:	4c 89 6d 20          	mov    %r13,0x20(%rbp)
  8f:	48 c7 45 28 00 00 00 	movq   $0x0,0x28(%rbp)
  96:	00 
  97:	48 83 c4 08          	add    $0x8,%rsp
  9b:	4c 89 f0             	mov    %r14,%rax
  9e:	5b                   	pop    %rbx
  9f:	5d                   	pop    %rbp
  a0:	41 5c                	pop    %r12
  a2:	41 5d                	pop    %r13
  a4:	41 5e                	pop    %r14
  a6:	41 5f                	pop    %r15
  a8:	c3                   	ret    
  a9:	0f 1f 80 00 00 00 00 	nopl   0x0(%rax)
  b0:	48 8b 53 18          	mov    0x18(%rbx),%rdx
  b4:	48 85 d2             	test   %rdx,%rdx
  b7:	75 13                	jne    cc <_ZNSt8_Rb_treeIPvSt4pairIKS0_bESt10_Select1stIS3_ESt4lessIS0_ESaIS3_EE5eraseERS2_+0xcc>
  b9:	eb 25                	jmp    e0 <_ZNSt8_Rb_treeIPvSt4pairIKS0_bESt10_Select1stIS3_ESt4lessIS0_ESaIS3_EE5eraseERS2_+0xe0>
  bb:	0f 1f 44 00 00       	nopl   0x0(%rax,%rax,1)
  c0:	49 89 d4             	mov    %rdx,%r12
  c3:	48 8b 52 10          	mov    0x10(%rdx),%rdx
  c7:	48 85 d2             	test   %rdx,%rdx
  ca:	74 14                	je     e0 <_ZNSt8_Rb_treeIPvSt4pairIKS0_bESt10_Select1stIS3_ESt4lessIS0_ESaIS3_EE5eraseERS2_+0xe0>
  cc:	48 39 4a 20          	cmp    %rcx,0x20(%rdx)
  d0:	77 ee                	ja     c0 <_ZNSt8_Rb_treeIPvSt4pairIKS0_bESt10_Select1stIS3_ESt4lessIS0_ESaIS3_EE5eraseERS2_+0xc0>
  d2:	48 8b 52 18          	mov    0x18(%rdx),%rdx
  d6:	48 85 d2             	test   %rdx,%rdx
  d9:	75 f1                	jne    cc <_ZNSt8_Rb_treeIPvSt4pairIKS0_bESt10_Select1stIS3_ESt4lessIS0_ESaIS3_EE5eraseERS2_+0xcc>
  db:	0f 1f 44 00 00       	nopl   0x0(%rax,%rax,1)
  e0:	48 85 c0             	test   %rax,%rax
  e3:	74 12                	je     f7 <_ZNSt8_Rb_treeIPvSt4pairIKS0_bESt10_Select1stIS3_ESt4lessIS0_ESaIS3_EE5eraseERS2_+0xf7>
  e5:	48 39 48 20          	cmp    %rcx,0x20(%rax)
  e9:	72 65                	jb     150 <_ZNSt8_Rb_treeIPvSt4pairIKS0_bESt10_Select1stIS3_ESt4lessIS0_ESaIS3_EE5eraseERS2_+0x150>
  eb:	48 89 c3             	mov    %rax,%rbx
  ee:	48 8b 40 10          	mov    0x10(%rax),%rax
  f2:	48 85 c0             	test   %rax,%rax
  f5:	75 ee                	jne    e5 <_ZNSt8_Rb_treeIPvSt4pairIKS0_bESt10_Select1stIS3_ESt4lessIS0_ESaIS3_EE5eraseERS2_+0xe5>
  f7:	4c 8b 75 28          	mov    0x28(%rbp),%r14
  fb:	48 39 5d 18          	cmp    %rbx,0x18(%rbp)
  ff:	74 5f                	je     160 <_ZNSt8_Rb_treeIPvSt4pairIKS0_bESt10_Select1stIS3_ESt4lessIS0_ESaIS3_EE5eraseERS2_+0x160>
 101:	4c 39 e3             	cmp    %r12,%rbx
 104:	74 6a                	je     170 <_ZNSt8_Rb_treeIPvSt4pairIKS0_bESt10_Select1stIS3_ESt4lessIS0_ESaIS3_EE5eraseERS2_+0x170>
 106:	66 2e 0f 1f 84 00 00 	cs nopw 0x0(%rax,%rax,1)
 10d:	00 00 00 
 110:	48 89 df             	mov    %rbx,%rdi
 113:	49 89 df             	mov    %rbx,%r15
 116:	e8 00 00 00 00       	call   11b <_ZNSt8_Rb_treeIPvSt4pairIKS0_bESt10_Select1stIS3_ESt4lessIS0_ESaIS3_EE5eraseERS2_+0x11b>
 11b:	4c 89 ee             	mov    %r13,%rsi
 11e:	4c 89 ff             	mov    %r15,%rdi
 121:	48 89 c3             	mov    %rax,%rbx
 124:	e8 00 00 00 00       	call   129 <_ZNSt8_Rb_treeIPvSt4pairIKS0_bESt10_Select1stIS3_ESt4lessIS0_ESaIS3_EE5eraseERS2_+0x129>
 129:	48 89 c7             	mov    %rax,%rdi
 12c:	e8 00 00 00 00       	call   131 <_ZNSt8_Rb_treeIPvSt4pairIKS0_bESt10_Select1stIS3_ESt4lessIS0_ESaIS3_EE5eraseERS2_+0x131>
 131:	48 8b 45 28          	mov    0x28(%rbp),%rax
 135:	48 83 e8 01          	sub    $0x1,%rax
 139:	48 89 45 28          	mov    %rax,0x28(%rbp)
 13d:	4c 39 e3             	cmp    %r12,%rbx
 140:	75 ce                	jne    110 <_ZNSt8_Rb_treeIPvSt4pairIKS0_bESt10_Select1stIS3_ESt4lessIS0_ESaIS3_EE5eraseERS2_+0x110>
 142:	49 29 c6             	sub    %rax,%r14
 145:	e9 4d ff ff ff       	jmp    97 <_ZNSt8_Rb_treeIPvSt4pairIKS0_bESt10_Select1stIS3_ESt4lessIS0_ESaIS3_EE5eraseERS2_+0x97>
 14a:	66 0f 1f 44 00 00    	nopw   0x0(%rax,%rax,1)
 150:	48 8b 40 18          	mov    0x18(%rax),%rax
 154:	eb 8a                	jmp    e0 <_ZNSt8_Rb_treeIPvSt4pairIKS0_bESt10_Select1stIS3_ESt4lessIS0_ESaIS3_EE5eraseERS2_+0xe0>
 156:	66 2e 0f 1f 84 00 00 	cs nopw 0x0(%rax,%rax,1)
 15d:	00 00 00 
 160:	4d 39 e5             	cmp    %r12,%r13
 163:	75 9c                	jne    101 <_ZNSt8_Rb_treeIPvSt4pairIKS0_bESt10_Select1stIS3_ESt4lessIS0_ESaIS3_EE5eraseERS2_+0x101>
 165:	e9 0a ff ff ff       	jmp    74 <_ZNSt8_Rb_treeIPvSt4pairIKS0_bESt10_Select1stIS3_ESt4lessIS0_ESaIS3_EE5eraseERS2_+0x74>
 16a:	66 0f 1f 44 00 00    	nopw   0x0(%rax,%rax,1)
 170:	45 31 f6             	xor    %r14d,%r14d
 173:	e9 1f ff ff ff       	jmp    97 <_ZNSt8_Rb_treeIPvSt4pairIKS0_bESt10_Select1stIS3_ESt4lessIS0_ESaIS3_EE5eraseERS2_+0x97>
 178:	0f 1f 84 00 00 00 00 	nopl   0x0(%rax,%rax,1)
 17f:	00 
 180:	4d 89 ec             	mov    %r13,%r12
 183:	b8 01 00 00 00       	mov    $0x1,%eax
 188:	e9 d1 fe ff ff       	jmp    5e <_ZNSt8_Rb_treeIPvSt4pairIKS0_bESt10_Select1stIS3_ESt4lessIS0_ESaIS3_EE5eraseERS2_+0x5e>

Disassembly of section .text._ZNSt8_Rb_treeIPvSt4pairIKS0_13_mem_region_tESt10_Select1stIS4_ESt4lessIS0_ESaIS4_EE5eraseERS2_:

0000000000000000 <_ZNSt8_Rb_treeIPvSt4pairIKS0_13_mem_region_tESt10_Select1stIS4_ESt4lessIS0_ESaIS4_EE5eraseERS2_>:
   0:	f3 0f 1e fa          	endbr64 
   4:	41 57                	push   %r15
   6:	41 56                	push   %r14
   8:	41 55                	push   %r13
   a:	4c 8d 6f 08          	lea    0x8(%rdi),%r13
   e:	41 54                	push   %r12
  10:	55                   	push   %rbp
  11:	48 89 fd             	mov    %rdi,%rbp
  14:	53                   	push   %rbx
  15:	48 83 ec 08          	sub    $0x8,%rsp
  19:	4c 8b 47 10          	mov    0x10(%rdi),%r8
  1d:	4d 85 c0             	test   %r8,%r8
  20:	0f 84 5a 01 00 00    	je     180 <_ZNSt8_Rb_treeIPvSt4pairIKS0_13_mem_region_tESt10_Select1stIS4_ESt4lessIS0_ESaIS4_EE5eraseERS2_+0x180>
  26:	48 8b 0e             	mov    (%rsi),%rcx
  29:	4d 89 ec             	mov    %r13,%r12
  2c:	4c 89 c3             	mov    %r8,%rbx
  2f:	eb 13                	jmp    44 <_ZNSt8_Rb_treeIPvSt4pairIKS0_13_mem_region_tESt10_Select1stIS4_ESt4lessIS0_ESaIS4_EE5eraseERS2_+0x44>
  31:	0f 1f 80 00 00 00 00 	nopl   0x0(%rax)
  38:	48 8b 43 18          	mov    0x18(%rbx),%rax
  3c:	48 85 c0             	test   %rax,%rax
  3f:	74 17                	je     58 <_ZNSt8_Rb_treeIPvSt4pairIKS0_13_mem_region_tESt10_Select1stIS4_ESt4lessIS0_ESaIS4_EE5eraseERS2_+0x58>
  41:	48 89 c3             	mov    %rax,%rbx
  44:	48 39 4b 20          	cmp    %rcx,0x20(%rbx)
  48:	72 ee                	jb     38 <_ZNSt8_Rb_treeIPvSt4pairIKS0_13_mem_region_tESt10_Select1stIS4_ESt4lessIS0_ESaIS4_EE5eraseERS2_+0x38>
  4a:	48 8b 43 10          	mov    0x10(%rbx),%rax
  4e:	76 60                	jbe    b0 <_ZNSt8_Rb_treeIPvSt4pairIKS0_13_mem_region_tESt10_Select1stIS4_ESt4lessIS0_ESaIS4_EE5eraseERS2_+0xb0>
  50:	49 89 dc             	mov    %rbx,%r12
  53:	48 85 c0             	test   %rax,%rax
  56:	75 e9                	jne    41 <_ZNSt8_Rb_treeIPvSt4pairIKS0_13_mem_region_tESt10_Select1stIS4_ESt4lessIS0_ESaIS4_EE5eraseERS2_+0x41>
  58:	4d 39 e5             	cmp    %r12,%r13
  5b:	0f 94 c0             	sete   %al
  5e:	4c 8b 75 28          	mov    0x28(%rbp),%r14
  62:	4c 39 65 18          	cmp    %r12,0x18(%rbp)
  66:	0f 85 04 01 00 00    	jne    170 <_ZNSt8_Rb_treeIPvSt4pairIKS0_13_mem_region_tESt10_Select1stIS4_ESt4lessIS0_ESaIS4_EE5eraseERS2_+0x170>
  6c:	84 c0                	test   %al,%al
  6e:	0f 84 fc 00 00 00    	je     170 <_ZNSt8_Rb_treeIPvSt4pairIKS0_13_mem_region_tESt10_Select1stIS4_ESt4lessIS0_ESaIS4_EE5eraseERS2_+0x170>
  74:	4c 89 c6             	mov    %r8,%rsi
  77:	48 89 ef             	mov    %rbp,%rdi
  7a:	e8 00 00 00 00       	call   7f <_ZNSt8_Rb_treeIPvSt4pairIKS0_13_mem_region_tESt10_Select1stIS4_ESt4lessIS0_ESaIS4_EE5eraseERS2_+0x7f>
  7f:	48 c7 45 10 00 00 00 	movq   $0x0,0x10(%rbp)
  86:	00 
  87:	4c 89 6d 18          	mov    %r13,0x18(%rbp)
  8b:	4c 89 6d 20          	mov    %r13,0x20(%rbp)
  8f:	48 c7 45 28 00 00 00 	movq   $0x0,0x28(%rbp)
  96:	00 
  97:	48 83 c4 08          	add    $0x8,%rsp
  9b:	4c 89 f0             	mov    %r14,%rax
  9e:	5b                   	pop    %rbx
  9f:	5d                   	pop    %rbp
  a0:	41 5c                	pop    %r12
  a2:	41 5d                	pop    %r13
  a4:	41 5e                	pop    %r14
  a6:	41 5f                	pop    %r15
  a8:	c3                   	ret    
  a9:	0f 1f 80 00 00 00 00 	nopl   0x0(%rax)
  b0:	48 8b 53 18          	mov    0x18(%rbx),%rdx
  b4:	48 85 d2             	test   %rdx,%rdx
  b7:	75 13                	jne    cc <_ZNSt8_Rb_treeIPvSt4pairIKS0_13_mem_region_tESt10_Select1stIS4_ESt4lessIS0_ESaIS4_EE5eraseERS2_+0xcc>
  b9:	eb 25                	jmp    e0 <_ZNSt8_Rb_treeIPvSt4pairIKS0_13_mem_region_tESt10_Select1stIS4_ESt4lessIS0_ESaIS4_EE5eraseERS2_+0xe0>
  bb:	0f 1f 44 00 00       	nopl   0x0(%rax,%rax,1)
  c0:	49 89 d4             	mov    %rdx,%r12
  c3:	48 8b 52 10          	mov    0x10(%rdx),%rdx
  c7:	48 85 d2             	test   %rdx,%rdx
  ca:	74 14                	je     e0 <_ZNSt8_Rb_treeIPvSt4pairIKS0_13_mem_region_tESt10_Select1stIS4_ESt4lessIS0_ESaIS4_EE5eraseERS2_+0xe0>
  cc:	48 39 4a 20          	cmp    %rcx,0x20(%rdx)
  d0:	77 ee                	ja     c0 <_ZNSt8_Rb_treeIPvSt4pairIKS0_13_mem_region_tESt10_Select1stIS4_ESt4lessIS0_ESaIS4_EE5eraseERS2_+0xc0>
  d2:	48 8b 52 18          	mov    0x18(%rdx),%rdx
  d6:	48 85 d2             	test   %rdx,%rdx
  d9:	75 f1                	jne    cc <_ZNSt8_Rb_treeIPvSt4pairIKS0_13_mem_region_tESt10_Select1stIS4_ESt4lessIS0_ESaIS4_EE5eraseERS2_+0xcc>
  db:	0f 1f 44 00 00       	nopl   0x0(%rax,%rax,1)
  e0:	48 85 c0             	test   %rax,%rax
  e3:	74 12                	je     f7 <_ZNSt8_Rb_treeIPvSt4pairIKS0_13_mem_region_tESt10_Select1stIS4_ESt4lessIS0_ESaIS4_EE5eraseERS2_+0xf7>
  e5:	48 39 48 20          	cmp    %rcx,0x20(%rax)
  e9:	72 65                	jb     150 <_ZNSt8_Rb_treeIPvSt4pairIKS0_13_mem_region_tESt10_Select1stIS4_ESt4lessIS0_ESaIS4_EE5eraseERS2_+0x150>
  eb:	48 89 c3             	mov    %rax,%rbx
  ee:	48 8b 40 10          	mov    0x10(%rax),%rax
  f2:	48 85 c0             	test   %rax,%rax
  f5:	75 ee                	jne    e5 <_ZNSt8_Rb_treeIPvSt4pairIKS0_13_mem_region_tESt10_Select1stIS4_ESt4lessIS0_ESaIS4_EE5eraseERS2_+0xe5>
  f7:	4c 8b 75 28          	mov    0x28(%rbp),%r14
  fb:	48 39 5d 18          	cmp    %rbx,0x18(%rbp)
  ff:	74 5f                	je     160 <_ZNSt8_Rb_treeIPvSt4pairIKS0_13_mem_region_tESt10_Select1stIS4_ESt4lessIS0_ESaIS4_EE5eraseERS2_+0x160>
 101:	4c 39 e3             	cmp    %r12,%rbx
 104:	74 6a                	je     170 <_ZNSt8_Rb_treeIPvSt4pairIKS0_13_mem_region_tESt10_Select1stIS4_ESt4lessIS0_ESaIS4_EE5eraseERS2_+0x170>
 106:	66 2e 0f 1f 84 00 00 	cs nopw 0x0(%rax,%rax,1)
 10d:	00 00 00 
 110:	48 89 df             	mov    %rbx,%rdi
 113:	49 89 df             	mov    %rbx,%r15
 116:	e8 00 00 00 00       	call   11b <_ZNSt8_Rb_treeIPvSt4pairIKS0_13_mem_region_tESt10_Select1stIS4_ESt4lessIS0_ESaIS4_EE5eraseERS2_+0x11b>
 11b:	4c 89 ee             	mov    %r13,%rsi
 11e:	4c 89 ff             	mov    %r15,%rdi
 121:	48 89 c3             	mov    %rax,%rbx
 124:	e8 00 00 00 00       	call   129 <_ZNSt8_Rb_treeIPvSt4pairIKS0_13_mem_region_tESt10_Select1stIS4_ESt4lessIS0_ESaIS4_EE5eraseERS2_+0x129>
 129:	48 89 c7             	mov    %rax,%rdi
 12c:	e8 00 00 00 00       	call   131 <_ZNSt8_Rb_treeIPvSt4pairIKS0_13_mem_region_tESt10_Select1stIS4_ESt4lessIS0_ESaIS4_EE5eraseERS2_+0x131>
 131:	48 8b 45 28          	mov    0x28(%rbp),%rax
 135:	48 83 e8 01          	sub    $0x1,%rax
 139:	48 89 45 28          	mov    %rax,0x28(%rbp)
 13d:	4c 39 e3             	cmp    %r12,%rbx
 140:	75 ce                	jne    110 <_ZNSt8_Rb_treeIPvSt4pairIKS0_13_mem_region_tESt10_Select1stIS4_ESt4lessIS0_ESaIS4_EE5eraseERS2_+0x110>
 142:	49 29 c6             	sub    %rax,%r14
 145:	e9 4d ff ff ff       	jmp    97 <_ZNSt8_Rb_treeIPvSt4pairIKS0_13_mem_region_tESt10_Select1stIS4_ESt4lessIS0_ESaIS4_EE5eraseERS2_+0x97>
 14a:	66 0f 1f 44 00 00    	nopw   0x0(%rax,%rax,1)
 150:	48 8b 40 18          	mov    0x18(%rax),%rax
 154:	eb 8a                	jmp    e0 <_ZNSt8_Rb_treeIPvSt4pairIKS0_13_mem_region_tESt10_Select1stIS4_ESt4lessIS0_ESaIS4_EE5eraseERS2_+0xe0>
 156:	66 2e 0f 1f 84 00 00 	cs nopw 0x0(%rax,%rax,1)
 15d:	00 00 00 
 160:	4d 39 e5             	cmp    %r12,%r13
 163:	75 9c                	jne    101 <_ZNSt8_Rb_treeIPvSt4pairIKS0_13_mem_region_tESt10_Select1stIS4_ESt4lessIS0_ESaIS4_EE5eraseERS2_+0x101>
 165:	e9 0a ff ff ff       	jmp    74 <_ZNSt8_Rb_treeIPvSt4pairIKS0_13_mem_region_tESt10_Select1stIS4_ESt4lessIS0_ESaIS4_EE5eraseERS2_+0x74>
 16a:	66 0f 1f 44 00 00    	nopw   0x0(%rax,%rax,1)
 170:	45 31 f6             	xor    %r14d,%r14d
 173:	e9 1f ff ff ff       	jmp    97 <_ZNSt8_Rb_treeIPvSt4pairIKS0_13_mem_region_tESt10_Select1stIS4_ESt4lessIS0_ESaIS4_EE5eraseERS2_+0x97>
 178:	0f 1f 84 00 00 00 00 	nopl   0x0(%rax,%rax,1)
 17f:	00 
 180:	4d 89 ec             	mov    %r13,%r12
 183:	b8 01 00 00 00       	mov    $0x1,%eax
 188:	e9 d1 fe ff ff       	jmp    5e <_ZNSt8_Rb_treeIPvSt4pairIKS0_13_mem_region_tESt10_Select1stIS4_ESt4lessIS0_ESaIS4_EE5eraseERS2_+0x5e>

Disassembly of section .text._ZNSt8_Rb_treeIPvSt4pairIKS0_iESt10_Select1stIS3_ESt4lessIS0_ESaIS3_EE5eraseERS2_:

0000000000000000 <_ZNSt8_Rb_treeIPvSt4pairIKS0_iESt10_Select1stIS3_ESt4lessIS0_ESaIS3_EE5eraseERS2_>:
   0:	f3 0f 1e fa          	endbr64 
   4:	41 57                	push   %r15
   6:	41 56                	push   %r14
   8:	41 55                	push   %r13
   a:	4c 8d 6f 08          	lea    0x8(%rdi),%r13
   e:	41 54                	push   %r12
  10:	55                   	push   %rbp
  11:	48 89 fd             	mov    %rdi,%rbp
  14:	53                   	push   %rbx
  15:	48 83 ec 08          	sub    $0x8,%rsp
  19:	4c 8b 47 10          	mov    0x10(%rdi),%r8
  1d:	4d 85 c0             	test   %r8,%r8
  20:	0f 84 5a 01 00 00    	je     180 <_ZNSt8_Rb_treeIPvSt4pairIKS0_iESt10_Select1stIS3_ESt4lessIS0_ESaIS3_EE5eraseERS2_+0x180>
  26:	48 8b 0e             	mov    (%rsi),%rcx
  29:	4d 89 ec             	mov    %r13,%r12
  2c:	4c 89 c3             	mov    %r8,%rbx
  2f:	eb 13                	jmp    44 <_ZNSt8_Rb_treeIPvSt4pairIKS0_iESt10_Select1stIS3_ESt4lessIS0_ESaIS3_EE5eraseERS2_+0x44>
  31:	0f 1f 80 00 00 00 00 	nopl   0x0(%rax)
  38:	48 8b 43 18          	mov    0x18(%rbx),%rax
  3c:	48 85 c0             	test   %rax,%rax
  3f:	74 17                	je     58 <_ZNSt8_Rb_treeIPvSt4pairIKS0_iESt10_Select1stIS3_ESt4lessIS0_ESaIS3_EE5eraseERS2_+0x58>
  41:	48 89 c3             	mov    %rax,%rbx
  44:	48 39 4b 20          	cmp    %rcx,0x20(%rbx)
  48:	72 ee                	jb     38 <_ZNSt8_Rb_treeIPvSt4pairIKS0_iESt10_Select1stIS3_ESt4lessIS0_ESaIS3_EE5eraseERS2_+0x38>
  4a:	48 8b 43 10          	mov    0x10(%rbx),%rax
  4e:	76 60                	jbe    b0 <_ZNSt8_Rb_treeIPvSt4pairIKS0_iESt10_Select1stIS3_ESt4lessIS0_ESaIS3_EE5eraseERS2_+0xb0>
  50:	49 89 dc             	mov    %rbx,%r12
  53:	48 85 c0             	test   %rax,%rax
  56:	75 e9                	jne    41 <_ZNSt8_Rb_treeIPvSt4pairIKS0_iESt10_Select1stIS3_ESt4lessIS0_ESaIS3_EE5eraseERS2_+0x41>
  58:	4d 39 e5             	cmp    %r12,%r13
  5b:	0f 94 c0             	sete   %al
  5e:	4c 8b 75 28          	mov    0x28(%rbp),%r14
  62:	4c 39 65 18          	cmp    %r12,0x18(%rbp)
  66:	0f 85 04 01 00 00    	jne    170 <_ZNSt8_Rb_treeIPvSt4pairIKS0_iESt10_Select1stIS3_ESt4lessIS0_ESaIS3_EE5eraseERS2_+0x170>
  6c:	84 c0                	test   %al,%al
  6e:	0f 84 fc 00 00 00    	je     170 <_ZNSt8_Rb_treeIPvSt4pairIKS0_iESt10_Select1stIS3_ESt4lessIS0_ESaIS3_EE5eraseERS2_+0x170>
  74:	4c 89 c6             	mov    %r8,%rsi
  77:	48 89 ef             	mov    %rbp,%rdi
  7a:	e8 00 00 00 00       	call   7f <_ZNSt8_Rb_treeIPvSt4pairIKS0_iESt10_Select1stIS3_ESt4lessIS0_ESaIS3_EE5eraseERS2_+0x7f>
  7f:	48 c7 45 10 00 00 00 	movq   $0x0,0x10(%rbp)
  86:	00 
  87:	4c 89 6d 18          	mov    %r13,0x18(%rbp)
  8b:	4c 89 6d 20          	mov    %r13,0x20(%rbp)
  8f:	48 c7 45 28 00 00 00 	movq   $0x0,0x28(%rbp)
  96:	00 
  97:	48 83 c4 08          	add    $0x8,%rsp
  9b:	4c 89 f0             	mov    %r14,%rax
  9e:	5b                   	pop    %rbx
  9f:	5d                   	pop    %rbp
  a0:	41 5c                	pop    %r12
  a2:	41 5d                	pop    %r13
  a4:	41 5e                	pop    %r14
  a6:	41 5f                	pop    %r15
  a8:	c3                   	ret    
  a9:	0f 1f 80 00 00 00 00 	nopl   0x0(%rax)
  b0:	48 8b 53 18          	mov    0x18(%rbx),%rdx
  b4:	48 85 d2             	test   %rdx,%rdx
  b7:	75 13                	jne    cc <_ZNSt8_Rb_treeIPvSt4pairIKS0_iESt10_Select1stIS3_ESt4lessIS0_ESaIS3_EE5eraseERS2_+0xcc>
  b9:	eb 25                	jmp    e0 <_ZNSt8_Rb_treeIPvSt4pairIKS0_iESt10_Select1stIS3_ESt4lessIS0_ESaIS3_EE5eraseERS2_+0xe0>
  bb:	0f 1f 44 00 00       	nopl   0x0(%rax,%rax,1)
  c0:	49 89 d4             	mov    %rdx,%r12
  c3:	48 8b 52 10          	mov    0x10(%rdx),%rdx
  c7:	48 85 d2             	test   %rdx,%rdx
  ca:	74 14                	je     e0 <_ZNSt8_Rb_treeIPvSt4pairIKS0_iESt10_Select1stIS3_ESt4lessIS0_ESaIS3_EE5eraseERS2_+0xe0>
  cc:	48 39 4a 20          	cmp    %rcx,0x20(%rdx)
  d0:	77 ee                	ja     c0 <_ZNSt8_Rb_treeIPvSt4pairIKS0_iESt10_Select1stIS3_ESt4lessIS0_ESaIS3_EE5eraseERS2_+0xc0>
  d2:	48 8b 52 18          	mov    0x18(%rdx),%rdx
  d6:	48 85 d2             	test   %rdx,%rdx
  d9:	75 f1                	jne    cc <_ZNSt8_Rb_treeIPvSt4pairIKS0_iESt10_Select1stIS3_ESt4lessIS0_ESaIS3_EE5eraseERS2_+0xcc>
  db:	0f 1f 44 00 00       	nopl   0x0(%rax,%rax,1)
  e0:	48 85 c0             	test   %rax,%rax
  e3:	74 12                	je     f7 <_ZNSt8_Rb_treeIPvSt4pairIKS0_iESt10_Select1stIS3_ESt4lessIS0_ESaIS3_EE5eraseERS2_+0xf7>
  e5:	48 39 48 20          	cmp    %rcx,0x20(%rax)
  e9:	72 65                	jb     150 <_ZNSt8_Rb_treeIPvSt4pairIKS0_iESt10_Select1stIS3_ESt4lessIS0_ESaIS3_EE5eraseERS2_+0x150>
  eb:	48 89 c3             	mov    %rax,%rbx
  ee:	48 8b 40 10          	mov    0x10(%rax),%rax
  f2:	48 85 c0             	test   %rax,%rax
  f5:	75 ee                	jne    e5 <_ZNSt8_Rb_treeIPvSt4pairIKS0_iESt10_Select1stIS3_ESt4lessIS0_ESaIS3_EE5eraseERS2_+0xe5>
  f7:	4c 8b 75 28          	mov    0x28(%rbp),%r14
  fb:	48 39 5d 18          	cmp    %rbx,0x18(%rbp)
  ff:	74 5f                	je     160 <_ZNSt8_Rb_treeIPvSt4pairIKS0_iESt10_Select1stIS3_ESt4lessIS0_ESaIS3_EE5eraseERS2_+0x160>
 101:	4c 39 e3             	cmp    %r12,%rbx
 104:	74 6a                	je     170 <_ZNSt8_Rb_treeIPvSt4pairIKS0_iESt10_Select1stIS3_ESt4lessIS0_ESaIS3_EE5eraseERS2_+0x170>
 106:	66 2e 0f 1f 84 00 00 	cs nopw 0x0(%rax,%rax,1)
 10d:	00 00 00 
 110:	48 89 df             	mov    %rbx,%rdi
 113:	49 89 df             	mov    %rbx,%r15
 116:	e8 00 00 00 00       	call   11b <_ZNSt8_Rb_treeIPvSt4pairIKS0_iESt10_Select1stIS3_ESt4lessIS0_ESaIS3_EE5eraseERS2_+0x11b>
 11b:	4c 89 ee             	mov    %r13,%rsi
 11e:	4c 89 ff             	mov    %r15,%rdi
 121:	48 89 c3             	mov    %rax,%rbx
 124:	e8 00 00 00 00       	call   129 <_ZNSt8_Rb_treeIPvSt4pairIKS0_iESt10_Select1stIS3_ESt4lessIS0_ESaIS3_EE5eraseERS2_+0x129>
 129:	48 89 c7             	mov    %rax,%rdi
 12c:	e8 00 00 00 00       	call   131 <_ZNSt8_Rb_treeIPvSt4pairIKS0_iESt10_Select1stIS3_ESt4lessIS0_ESaIS3_EE5eraseERS2_+0x131>
 131:	48 8b 45 28          	mov    0x28(%rbp),%rax
 135:	48 83 e8 01          	sub    $0x1,%rax
 139:	48 89 45 28          	mov    %rax,0x28(%rbp)
 13d:	4c 39 e3             	cmp    %r12,%rbx
 140:	75 ce                	jne    110 <_ZNSt8_Rb_treeIPvSt4pairIKS0_iESt10_Select1stIS3_ESt4lessIS0_ESaIS3_EE5eraseERS2_+0x110>
 142:	49 29 c6             	sub    %rax,%r14
 145:	e9 4d ff ff ff       	jmp    97 <_ZNSt8_Rb_treeIPvSt4pairIKS0_iESt10_Select1stIS3_ESt4lessIS0_ESaIS3_EE5eraseERS2_+0x97>
 14a:	66 0f 1f 44 00 00    	nopw   0x0(%rax,%rax,1)
 150:	48 8b 40 18          	mov    0x18(%rax),%rax
 154:	eb 8a                	jmp    e0 <_ZNSt8_Rb_treeIPvSt4pairIKS0_iESt10_Select1stIS3_ESt4lessIS0_ESaIS3_EE5eraseERS2_+0xe0>
 156:	66 2e 0f 1f 84 00 00 	cs nopw 0x0(%rax,%rax,1)
 15d:	00 00 00 
 160:	4d 39 e5             	cmp    %r12,%r13
 163:	75 9c                	jne    101 <_ZNSt8_Rb_treeIPvSt4pairIKS0_iESt10_Select1stIS3_ESt4lessIS0_ESaIS3_EE5eraseERS2_+0x101>
 165:	e9 0a ff ff ff       	jmp    74 <_ZNSt8_Rb_treeIPvSt4pairIKS0_iESt10_Select1stIS3_ESt4lessIS0_ESaIS3_EE5eraseERS2_+0x74>
 16a:	66 0f 1f 44 00 00    	nopw   0x0(%rax,%rax,1)
 170:	45 31 f6             	xor    %r14d,%r14d
 173:	e9 1f ff ff ff       	jmp    97 <_ZNSt8_Rb_treeIPvSt4pairIKS0_iESt10_Select1stIS3_ESt4lessIS0_ESaIS3_EE5eraseERS2_+0x97>
 178:	0f 1f 84 00 00 00 00 	nopl   0x0(%rax,%rax,1)
 17f:	00 
 180:	4d 89 ec             	mov    %r13,%r12
 183:	b8 01 00 00 00       	mov    $0x1,%eax
 188:	e9 d1 fe ff ff       	jmp    5e <_ZNSt8_Rb_treeIPvSt4pairIKS0_iESt10_Select1stIS3_ESt4lessIS0_ESaIS3_EE5eraseERS2_+0x5e>

Disassembly of section .text._ZNSt8_Rb_treeIPvSt4pairIKS0_15enclave_elrangeESt10_Select1stIS4_ESt4lessIS0_ESaIS4_EE5eraseERS2_:

0000000000000000 <_ZNSt8_Rb_treeIPvSt4pairIKS0_15enclave_elrangeESt10_Select1stIS4_ESt4lessIS0_ESaIS4_EE5eraseERS2_>:
   0:	f3 0f 1e fa          	endbr64 
   4:	41 57                	push   %r15
   6:	41 56                	push   %r14
   8:	41 55                	push   %r13
   a:	4c 8d 6f 08          	lea    0x8(%rdi),%r13
   e:	41 54                	push   %r12
  10:	55                   	push   %rbp
  11:	48 89 fd             	mov    %rdi,%rbp
  14:	53                   	push   %rbx
  15:	48 83 ec 08          	sub    $0x8,%rsp
  19:	4c 8b 47 10          	mov    0x10(%rdi),%r8
  1d:	4d 85 c0             	test   %r8,%r8
  20:	0f 84 5a 01 00 00    	je     180 <_ZNSt8_Rb_treeIPvSt4pairIKS0_15enclave_elrangeESt10_Select1stIS4_ESt4lessIS0_ESaIS4_EE5eraseERS2_+0x180>
  26:	48 8b 0e             	mov    (%rsi),%rcx
  29:	4d 89 ec             	mov    %r13,%r12
  2c:	4c 89 c3             	mov    %r8,%rbx
  2f:	eb 13                	jmp    44 <_ZNSt8_Rb_treeIPvSt4pairIKS0_15enclave_elrangeESt10_Select1stIS4_ESt4lessIS0_ESaIS4_EE5eraseERS2_+0x44>
  31:	0f 1f 80 00 00 00 00 	nopl   0x0(%rax)
  38:	48 8b 43 18          	mov    0x18(%rbx),%rax
  3c:	48 85 c0             	test   %rax,%rax
  3f:	74 17                	je     58 <_ZNSt8_Rb_treeIPvSt4pairIKS0_15enclave_elrangeESt10_Select1stIS4_ESt4lessIS0_ESaIS4_EE5eraseERS2_+0x58>
  41:	48 89 c3             	mov    %rax,%rbx
  44:	48 39 4b 20          	cmp    %rcx,0x20(%rbx)
  48:	72 ee                	jb     38 <_ZNSt8_Rb_treeIPvSt4pairIKS0_15enclave_elrangeESt10_Select1stIS4_ESt4lessIS0_ESaIS4_EE5eraseERS2_+0x38>
  4a:	48 8b 43 10          	mov    0x10(%rbx),%rax
  4e:	76 60                	jbe    b0 <_ZNSt8_Rb_treeIPvSt4pairIKS0_15enclave_elrangeESt10_Select1stIS4_ESt4lessIS0_ESaIS4_EE5eraseERS2_+0xb0>
  50:	49 89 dc             	mov    %rbx,%r12
  53:	48 85 c0             	test   %rax,%rax
  56:	75 e9                	jne    41 <_ZNSt8_Rb_treeIPvSt4pairIKS0_15enclave_elrangeESt10_Select1stIS4_ESt4lessIS0_ESaIS4_EE5eraseERS2_+0x41>
  58:	4d 39 e5             	cmp    %r12,%r13
  5b:	0f 94 c0             	sete   %al
  5e:	4c 8b 75 28          	mov    0x28(%rbp),%r14
  62:	4c 39 65 18          	cmp    %r12,0x18(%rbp)
  66:	0f 85 04 01 00 00    	jne    170 <_ZNSt8_Rb_treeIPvSt4pairIKS0_15enclave_elrangeESt10_Select1stIS4_ESt4lessIS0_ESaIS4_EE5eraseERS2_+0x170>
  6c:	84 c0                	test   %al,%al
  6e:	0f 84 fc 00 00 00    	je     170 <_ZNSt8_Rb_treeIPvSt4pairIKS0_15enclave_elrangeESt10_Select1stIS4_ESt4lessIS0_ESaIS4_EE5eraseERS2_+0x170>
  74:	4c 89 c6             	mov    %r8,%rsi
  77:	48 89 ef             	mov    %rbp,%rdi
  7a:	e8 00 00 00 00       	call   7f <_ZNSt8_Rb_treeIPvSt4pairIKS0_15enclave_elrangeESt10_Select1stIS4_ESt4lessIS0_ESaIS4_EE5eraseERS2_+0x7f>
  7f:	48 c7 45 10 00 00 00 	movq   $0x0,0x10(%rbp)
  86:	00 
  87:	4c 89 6d 18          	mov    %r13,0x18(%rbp)
  8b:	4c 89 6d 20          	mov    %r13,0x20(%rbp)
  8f:	48 c7 45 28 00 00 00 	movq   $0x0,0x28(%rbp)
  96:	00 
  97:	48 83 c4 08          	add    $0x8,%rsp
  9b:	4c 89 f0             	mov    %r14,%rax
  9e:	5b                   	pop    %rbx
  9f:	5d                   	pop    %rbp
  a0:	41 5c                	pop    %r12
  a2:	41 5d                	pop    %r13
  a4:	41 5e                	pop    %r14
  a6:	41 5f                	pop    %r15
  a8:	c3                   	ret    
  a9:	0f 1f 80 00 00 00 00 	nopl   0x0(%rax)
  b0:	48 8b 53 18          	mov    0x18(%rbx),%rdx
  b4:	48 85 d2             	test   %rdx,%rdx
  b7:	75 13                	jne    cc <_ZNSt8_Rb_treeIPvSt4pairIKS0_15enclave_elrangeESt10_Select1stIS4_ESt4lessIS0_ESaIS4_EE5eraseERS2_+0xcc>
  b9:	eb 25                	jmp    e0 <_ZNSt8_Rb_treeIPvSt4pairIKS0_15enclave_elrangeESt10_Select1stIS4_ESt4lessIS0_ESaIS4_EE5eraseERS2_+0xe0>
  bb:	0f 1f 44 00 00       	nopl   0x0(%rax,%rax,1)
  c0:	49 89 d4             	mov    %rdx,%r12
  c3:	48 8b 52 10          	mov    0x10(%rdx),%rdx
  c7:	48 85 d2             	test   %rdx,%rdx
  ca:	74 14                	je     e0 <_ZNSt8_Rb_treeIPvSt4pairIKS0_15enclave_elrangeESt10_Select1stIS4_ESt4lessIS0_ESaIS4_EE5eraseERS2_+0xe0>
  cc:	48 39 4a 20          	cmp    %rcx,0x20(%rdx)
  d0:	77 ee                	ja     c0 <_ZNSt8_Rb_treeIPvSt4pairIKS0_15enclave_elrangeESt10_Select1stIS4_ESt4lessIS0_ESaIS4_EE5eraseERS2_+0xc0>
  d2:	48 8b 52 18          	mov    0x18(%rdx),%rdx
  d6:	48 85 d2             	test   %rdx,%rdx
  d9:	75 f1                	jne    cc <_ZNSt8_Rb_treeIPvSt4pairIKS0_15enclave_elrangeESt10_Select1stIS4_ESt4lessIS0_ESaIS4_EE5eraseERS2_+0xcc>
  db:	0f 1f 44 00 00       	nopl   0x0(%rax,%rax,1)
  e0:	48 85 c0             	test   %rax,%rax
  e3:	74 12                	je     f7 <_ZNSt8_Rb_treeIPvSt4pairIKS0_15enclave_elrangeESt10_Select1stIS4_ESt4lessIS0_ESaIS4_EE5eraseERS2_+0xf7>
  e5:	48 39 48 20          	cmp    %rcx,0x20(%rax)
  e9:	72 65                	jb     150 <_ZNSt8_Rb_treeIPvSt4pairIKS0_15enclave_elrangeESt10_Select1stIS4_ESt4lessIS0_ESaIS4_EE5eraseERS2_+0x150>
  eb:	48 89 c3             	mov    %rax,%rbx
  ee:	48 8b 40 10          	mov    0x10(%rax),%rax
  f2:	48 85 c0             	test   %rax,%rax
  f5:	75 ee                	jne    e5 <_ZNSt8_Rb_treeIPvSt4pairIKS0_15enclave_elrangeESt10_Select1stIS4_ESt4lessIS0_ESaIS4_EE5eraseERS2_+0xe5>
  f7:	4c 8b 75 28          	mov    0x28(%rbp),%r14
  fb:	48 39 5d 18          	cmp    %rbx,0x18(%rbp)
  ff:	74 5f                	je     160 <_ZNSt8_Rb_treeIPvSt4pairIKS0_15enclave_elrangeESt10_Select1stIS4_ESt4lessIS0_ESaIS4_EE5eraseERS2_+0x160>
 101:	4c 39 e3             	cmp    %r12,%rbx
 104:	74 6a                	je     170 <_ZNSt8_Rb_treeIPvSt4pairIKS0_15enclave_elrangeESt10_Select1stIS4_ESt4lessIS0_ESaIS4_EE5eraseERS2_+0x170>
 106:	66 2e 0f 1f 84 00 00 	cs nopw 0x0(%rax,%rax,1)
 10d:	00 00 00 
 110:	48 89 df             	mov    %rbx,%rdi
 113:	49 89 df             	mov    %rbx,%r15
 116:	e8 00 00 00 00       	call   11b <_ZNSt8_Rb_treeIPvSt4pairIKS0_15enclave_elrangeESt10_Select1stIS4_ESt4lessIS0_ESaIS4_EE5eraseERS2_+0x11b>
 11b:	4c 89 ee             	mov    %r13,%rsi
 11e:	4c 89 ff             	mov    %r15,%rdi
 121:	48 89 c3             	mov    %rax,%rbx
 124:	e8 00 00 00 00       	call   129 <_ZNSt8_Rb_treeIPvSt4pairIKS0_15enclave_elrangeESt10_Select1stIS4_ESt4lessIS0_ESaIS4_EE5eraseERS2_+0x129>
 129:	48 89 c7             	mov    %rax,%rdi
 12c:	e8 00 00 00 00       	call   131 <_ZNSt8_Rb_treeIPvSt4pairIKS0_15enclave_elrangeESt10_Select1stIS4_ESt4lessIS0_ESaIS4_EE5eraseERS2_+0x131>
 131:	48 8b 45 28          	mov    0x28(%rbp),%rax
 135:	48 83 e8 01          	sub    $0x1,%rax
 139:	48 89 45 28          	mov    %rax,0x28(%rbp)
 13d:	4c 39 e3             	cmp    %r12,%rbx
 140:	75 ce                	jne    110 <_ZNSt8_Rb_treeIPvSt4pairIKS0_15enclave_elrangeESt10_Select1stIS4_ESt4lessIS0_ESaIS4_EE5eraseERS2_+0x110>
 142:	49 29 c6             	sub    %rax,%r14
 145:	e9 4d ff ff ff       	jmp    97 <_ZNSt8_Rb_treeIPvSt4pairIKS0_15enclave_elrangeESt10_Select1stIS4_ESt4lessIS0_ESaIS4_EE5eraseERS2_+0x97>
 14a:	66 0f 1f 44 00 00    	nopw   0x0(%rax,%rax,1)
 150:	48 8b 40 18          	mov    0x18(%rax),%rax
 154:	eb 8a                	jmp    e0 <_ZNSt8_Rb_treeIPvSt4pairIKS0_15enclave_elrangeESt10_Select1stIS4_ESt4lessIS0_ESaIS4_EE5eraseERS2_+0xe0>
 156:	66 2e 0f 1f 84 00 00 	cs nopw 0x0(%rax,%rax,1)
 15d:	00 00 00 
 160:	4d 39 e5             	cmp    %r12,%r13
 163:	75 9c                	jne    101 <_ZNSt8_Rb_treeIPvSt4pairIKS0_15enclave_elrangeESt10_Select1stIS4_ESt4lessIS0_ESaIS4_EE5eraseERS2_+0x101>
 165:	e9 0a ff ff ff       	jmp    74 <_ZNSt8_Rb_treeIPvSt4pairIKS0_15enclave_elrangeESt10_Select1stIS4_ESt4lessIS0_ESaIS4_EE5eraseERS2_+0x74>
 16a:	66 0f 1f 44 00 00    	nopw   0x0(%rax,%rax,1)
 170:	45 31 f6             	xor    %r14d,%r14d
 173:	e9 1f ff ff ff       	jmp    97 <_ZNSt8_Rb_treeIPvSt4pairIKS0_15enclave_elrangeESt10_Select1stIS4_ESt4lessIS0_ESaIS4_EE5eraseERS2_+0x97>
 178:	0f 1f 84 00 00 00 00 	nopl   0x0(%rax,%rax,1)
 17f:	00 
 180:	4d 89 ec             	mov    %r13,%r12
 183:	b8 01 00 00 00       	mov    $0x1,%eax
 188:	e9 d1 fe ff ff       	jmp    5e <_ZNSt8_Rb_treeIPvSt4pairIKS0_15enclave_elrangeESt10_Select1stIS4_ESt4lessIS0_ESaIS4_EE5eraseERS2_+0x5e>

Disassembly of section .text._ZNSt8_Rb_treeIPvSt4pairIKS0_iESt10_Select1stIS3_ESt4lessIS0_ESaIS3_EE24_M_get_insert_unique_posERS2_:

0000000000000000 <_ZNSt8_Rb_treeIPvSt4pairIKS0_iESt10_Select1stIS3_ESt4lessIS0_ESaIS3_EE24_M_get_insert_unique_posERS2_>:
   0:	f3 0f 1e fa          	endbr64 
   4:	55                   	push   %rbp
   5:	48 89 f5             	mov    %rsi,%rbp
   8:	53                   	push   %rbx
   9:	48 83 ec 08          	sub    $0x8,%rsp
   d:	48 8b 5f 10          	mov    0x10(%rdi),%rbx
  11:	48 85 db             	test   %rbx,%rbx
  14:	74 5a                	je     70 <_ZNSt8_Rb_treeIPvSt4pairIKS0_iESt10_Select1stIS3_ESt4lessIS0_ESaIS3_EE24_M_get_insert_unique_posERS2_+0x70>
  16:	4c 8b 06             	mov    (%rsi),%r8
  19:	eb 17                	jmp    32 <_ZNSt8_Rb_treeIPvSt4pairIKS0_iESt10_Select1stIS3_ESt4lessIS0_ESaIS3_EE24_M_get_insert_unique_posERS2_+0x32>
  1b:	0f 1f 44 00 00       	nopl   0x0(%rax,%rax,1)
  20:	48 8b 43 10          	mov    0x10(%rbx),%rax
  24:	41 b9 01 00 00 00    	mov    $0x1,%r9d
  2a:	48 85 c0             	test   %rax,%rax
  2d:	74 18                	je     47 <_ZNSt8_Rb_treeIPvSt4pairIKS0_iESt10_Select1stIS3_ESt4lessIS0_ESaIS3_EE24_M_get_insert_unique_posERS2_+0x47>
  2f:	48 89 c3             	mov    %rax,%rbx
  32:	48 8b 4b 20          	mov    0x20(%rbx),%rcx
  36:	4c 39 c1             	cmp    %r8,%rcx
  39:	77 e5                	ja     20 <_ZNSt8_Rb_treeIPvSt4pairIKS0_iESt10_Select1stIS3_ESt4lessIS0_ESaIS3_EE24_M_get_insert_unique_posERS2_+0x20>
  3b:	48 8b 43 18          	mov    0x18(%rbx),%rax
  3f:	45 31 c9             	xor    %r9d,%r9d
  42:	48 85 c0             	test   %rax,%rax
  45:	75 e8                	jne    2f <_ZNSt8_Rb_treeIPvSt4pairIKS0_iESt10_Select1stIS3_ESt4lessIS0_ESaIS3_EE24_M_get_insert_unique_posERS2_+0x2f>
  47:	48 89 de             	mov    %rbx,%rsi
  4a:	45 84 c9             	test   %r9b,%r9b
  4d:	75 25                	jne    74 <_ZNSt8_Rb_treeIPvSt4pairIKS0_iESt10_Select1stIS3_ESt4lessIS0_ESaIS3_EE24_M_get_insert_unique_posERS2_+0x74>
  4f:	31 d2                	xor    %edx,%edx
  51:	48 89 d8             	mov    %rbx,%rax
  54:	49 39 c8             	cmp    %rcx,%r8
  57:	48 0f 47 c2          	cmova  %rdx,%rax
  5b:	48 0f 47 d6          	cmova  %rsi,%rdx
  5f:	48 83 c4 08          	add    $0x8,%rsp
  63:	5b                   	pop    %rbx
  64:	5d                   	pop    %rbp
  65:	c3                   	ret    
  66:	66 2e 0f 1f 84 00 00 	cs nopw 0x0(%rax,%rax,1)
  6d:	00 00 00 
  70:	48 8d 5f 08          	lea    0x8(%rdi),%rbx
  74:	31 c0                	xor    %eax,%eax
  76:	48 89 da             	mov    %rbx,%rdx
  79:	48 39 5f 18          	cmp    %rbx,0x18(%rdi)
  7d:	74 e0                	je     5f <_ZNSt8_Rb_treeIPvSt4pairIKS0_iESt10_Select1stIS3_ESt4lessIS0_ESaIS3_EE24_M_get_insert_unique_posERS2_+0x5f>
  7f:	48 89 df             	mov    %rbx,%rdi
  82:	e8 00 00 00 00       	call   87 <_ZNSt8_Rb_treeIPvSt4pairIKS0_iESt10_Select1stIS3_ESt4lessIS0_ESaIS3_EE24_M_get_insert_unique_posERS2_+0x87>
  87:	48 89 de             	mov    %rbx,%rsi
  8a:	4c 8b 45 00          	mov    0x0(%rbp),%r8
  8e:	48 8b 48 20          	mov    0x20(%rax),%rcx
  92:	48 89 c3             	mov    %rax,%rbx
  95:	eb b8                	jmp    4f <_ZNSt8_Rb_treeIPvSt4pairIKS0_iESt10_Select1stIS3_ESt4lessIS0_ESaIS3_EE24_M_get_insert_unique_posERS2_+0x4f>

Disassembly of section .text._ZNSt8_Rb_treeIPvSt4pairIKS0_iESt10_Select1stIS3_ESt4lessIS0_ESaIS3_EE29_M_get_insert_hint_unique_posESt23_Rb_tree_const_iteratorIS3_ERS2_:

0000000000000000 <_ZNSt8_Rb_treeIPvSt4pairIKS0_iESt10_Select1stIS3_ESt4lessIS0_ESaIS3_EE29_M_get_insert_hint_unique_posESt23_Rb_tree_const_iteratorIS3_ERS2_>:
   0:	f3 0f 1e fa          	endbr64 
   4:	41 55                	push   %r13
   6:	48 8d 47 08          	lea    0x8(%rdi),%rax
   a:	41 54                	push   %r12
   c:	49 89 d4             	mov    %rdx,%r12
   f:	55                   	push   %rbp
  10:	48 89 fd             	mov    %rdi,%rbp
  13:	53                   	push   %rbx
  14:	48 83 ec 08          	sub    $0x8,%rsp
  18:	48 39 c6             	cmp    %rax,%rsi
  1b:	0f 84 8f 00 00 00    	je     b0 <_ZNSt8_Rb_treeIPvSt4pairIKS0_iESt10_Select1stIS3_ESt4lessIS0_ESaIS3_EE29_M_get_insert_hint_unique_posESt23_Rb_tree_const_iteratorIS3_ERS2_+0xb0>
  21:	4c 8b 2a             	mov    (%rdx),%r13
  24:	48 89 f3             	mov    %rsi,%rbx
  27:	4c 39 6e 20          	cmp    %r13,0x20(%rsi)
  2b:	76 43                	jbe    70 <_ZNSt8_Rb_treeIPvSt4pairIKS0_iESt10_Select1stIS3_ESt4lessIS0_ESaIS3_EE29_M_get_insert_hint_unique_posESt23_Rb_tree_const_iteratorIS3_ERS2_+0x70>
  2d:	4c 8b 47 18          	mov    0x18(%rdi),%r8
  31:	4c 89 c2             	mov    %r8,%rdx
  34:	49 39 f0             	cmp    %rsi,%r8
  37:	74 24                	je     5d <_ZNSt8_Rb_treeIPvSt4pairIKS0_iESt10_Select1stIS3_ESt4lessIS0_ESaIS3_EE29_M_get_insert_hint_unique_posESt23_Rb_tree_const_iteratorIS3_ERS2_+0x5d>
  39:	48 89 f7             	mov    %rsi,%rdi
  3c:	e8 00 00 00 00       	call   41 <_ZNSt8_Rb_treeIPvSt4pairIKS0_iESt10_Select1stIS3_ESt4lessIS0_ESaIS3_EE29_M_get_insert_hint_unique_posESt23_Rb_tree_const_iteratorIS3_ERS2_+0x41>
  41:	4c 39 68 20          	cmp    %r13,0x20(%rax)
  45:	73 7d                	jae    c4 <_ZNSt8_Rb_treeIPvSt4pairIKS0_iESt10_Select1stIS3_ESt4lessIS0_ESaIS3_EE29_M_get_insert_hint_unique_posESt23_Rb_tree_const_iteratorIS3_ERS2_+0xc4>
  47:	48 83 78 18 00       	cmpq   $0x0,0x18(%rax)
  4c:	41 b8 00 00 00 00    	mov    $0x0,%r8d
  52:	4c 0f 45 c3          	cmovne %rbx,%r8
  56:	48 0f 44 d8          	cmove  %rax,%rbx
  5a:	48 89 da             	mov    %rbx,%rdx
  5d:	48 83 c4 08          	add    $0x8,%rsp
  61:	4c 89 c0             	mov    %r8,%rax
  64:	5b                   	pop    %rbx
  65:	5d                   	pop    %rbp
  66:	41 5c                	pop    %r12
  68:	41 5d                	pop    %r13
  6a:	c3                   	ret    
  6b:	0f 1f 44 00 00       	nopl   0x0(%rax,%rax,1)
  70:	73 6e                	jae    e0 <_ZNSt8_Rb_treeIPvSt4pairIKS0_iESt10_Select1stIS3_ESt4lessIS0_ESaIS3_EE29_M_get_insert_hint_unique_posESt23_Rb_tree_const_iteratorIS3_ERS2_+0xe0>
  72:	48 8b 47 20          	mov    0x20(%rdi),%rax
  76:	45 31 c0             	xor    %r8d,%r8d
  79:	48 89 c2             	mov    %rax,%rdx
  7c:	48 39 f0             	cmp    %rsi,%rax
  7f:	74 dc                	je     5d <_ZNSt8_Rb_treeIPvSt4pairIKS0_iESt10_Select1stIS3_ESt4lessIS0_ESaIS3_EE29_M_get_insert_hint_unique_posESt23_Rb_tree_const_iteratorIS3_ERS2_+0x5d>
  81:	48 89 f7             	mov    %rsi,%rdi
  84:	e8 00 00 00 00       	call   89 <_ZNSt8_Rb_treeIPvSt4pairIKS0_iESt10_Select1stIS3_ESt4lessIS0_ESaIS3_EE29_M_get_insert_hint_unique_posESt23_Rb_tree_const_iteratorIS3_ERS2_+0x89>
  89:	4c 39 68 20          	cmp    %r13,0x20(%rax)
  8d:	76 35                	jbe    c4 <_ZNSt8_Rb_treeIPvSt4pairIKS0_iESt10_Select1stIS3_ESt4lessIS0_ESaIS3_EE29_M_get_insert_hint_unique_posESt23_Rb_tree_const_iteratorIS3_ERS2_+0xc4>
  8f:	48 83 7b 18 00       	cmpq   $0x0,0x18(%rbx)
  94:	41 b8 00 00 00 00    	mov    $0x0,%r8d
  9a:	48 89 da             	mov    %rbx,%rdx
  9d:	4c 0f 45 c0          	cmovne %rax,%r8
  a1:	48 0f 45 d0          	cmovne %rax,%rdx
  a5:	eb b6                	jmp    5d <_ZNSt8_Rb_treeIPvSt4pairIKS0_iESt10_Select1stIS3_ESt4lessIS0_ESaIS3_EE29_M_get_insert_hint_unique_posESt23_Rb_tree_const_iteratorIS3_ERS2_+0x5d>
  a7:	66 0f 1f 84 00 00 00 	nopw   0x0(%rax,%rax,1)
  ae:	00 00 
  b0:	48 83 7f 28 00       	cmpq   $0x0,0x28(%rdi)
  b5:	74 0d                	je     c4 <_ZNSt8_Rb_treeIPvSt4pairIKS0_iESt10_Select1stIS3_ESt4lessIS0_ESaIS3_EE29_M_get_insert_hint_unique_posESt23_Rb_tree_const_iteratorIS3_ERS2_+0xc4>
  b7:	48 8b 5f 20          	mov    0x20(%rdi),%rbx
  bb:	48 8b 43 20          	mov    0x20(%rbx),%rax
  bf:	48 39 02             	cmp    %rax,(%rdx)
  c2:	77 34                	ja     f8 <_ZNSt8_Rb_treeIPvSt4pairIKS0_iESt10_Select1stIS3_ESt4lessIS0_ESaIS3_EE29_M_get_insert_hint_unique_posESt23_Rb_tree_const_iteratorIS3_ERS2_+0xf8>
  c4:	48 83 c4 08          	add    $0x8,%rsp
  c8:	4c 89 e6             	mov    %r12,%rsi
  cb:	48 89 ef             	mov    %rbp,%rdi
  ce:	5b                   	pop    %rbx
  cf:	5d                   	pop    %rbp
  d0:	41 5c                	pop    %r12
  d2:	41 5d                	pop    %r13
  d4:	e9 00 00 00 00       	jmp    d9 <_ZNSt8_Rb_treeIPvSt4pairIKS0_iESt10_Select1stIS3_ESt4lessIS0_ESaIS3_EE29_M_get_insert_hint_unique_posESt23_Rb_tree_const_iteratorIS3_ERS2_+0xd9>
  d9:	0f 1f 80 00 00 00 00 	nopl   0x0(%rax)
  e0:	48 83 c4 08          	add    $0x8,%rsp
  e4:	49 89 f0             	mov    %rsi,%r8
  e7:	31 d2                	xor    %edx,%edx
  e9:	5b                   	pop    %rbx
  ea:	4c 89 c0             	mov    %r8,%rax
  ed:	5d                   	pop    %rbp
  ee:	41 5c                	pop    %r12
  f0:	41 5d                	pop    %r13
  f2:	c3                   	ret    
  f3:	0f 1f 44 00 00       	nopl   0x0(%rax,%rax,1)
  f8:	48 83 c4 08          	add    $0x8,%rsp
  fc:	45 31 c0             	xor    %r8d,%r8d
  ff:	48 89 da             	mov    %rbx,%rdx
 102:	4c 89 c0             	mov    %r8,%rax
 105:	5b                   	pop    %rbx
 106:	5d                   	pop    %rbp
 107:	41 5c                	pop    %r12
 109:	41 5d                	pop    %r13
 10b:	c3                   	ret    

Disassembly of section .text._ZNSt8_Rb_treeIPvSt4pairIKS0_iESt10_Select1stIS3_ESt4lessIS0_ESaIS3_EE22_M_emplace_hint_uniqueIJRKSt21piecewise_construct_tSt5tupleIJRS2_EESE_IJEEEEESt17_Rb_tree_iteratorIS3_ESt23_Rb_tree_const_iteratorIS3_EDpOT_:

0000000000000000 <_ZNSt8_Rb_treeIPvSt4pairIKS0_iESt10_Select1stIS3_ESt4lessIS0_ESaIS3_EE22_M_emplace_hint_uniqueIJRKSt21piecewise_construct_tSt5tupleIJRS2_EESE_IJEEEEESt17_Rb_tree_iteratorIS3_ESt23_Rb_tree_const_iteratorIS3_EDpOT_>:
   0:	f3 0f 1e fa          	endbr64 
   4:	41 55                	push   %r13
   6:	49 89 cd             	mov    %rcx,%r13
   9:	41 54                	push   %r12
   b:	49 89 f4             	mov    %rsi,%r12
   e:	55                   	push   %rbp
   f:	53                   	push   %rbx
  10:	48 89 fb             	mov    %rdi,%rbx
  13:	bf 30 00 00 00       	mov    $0x30,%edi
  18:	48 83 ec 08          	sub    $0x8,%rsp
  1c:	e8 00 00 00 00       	call   21 <_ZNSt8_Rb_treeIPvSt4pairIKS0_iESt10_Select1stIS3_ESt4lessIS0_ESaIS3_EE22_M_emplace_hint_uniqueIJRKSt21piecewise_construct_tSt5tupleIJRS2_EESE_IJEEEEESt17_Rb_tree_iteratorIS3_ESt23_Rb_tree_const_iteratorIS3_EDpOT_+0x21>
  21:	4c 89 e6             	mov    %r12,%rsi
  24:	48 89 df             	mov    %rbx,%rdi
  27:	48 89 c5             	mov    %rax,%rbp
  2a:	49 8b 45 00          	mov    0x0(%r13),%rax
  2e:	48 8d 55 20          	lea    0x20(%rbp),%rdx
  32:	c7 45 28 00 00 00 00 	movl   $0x0,0x28(%rbp)
  39:	48 8b 00             	mov    (%rax),%rax
  3c:	48 89 45 20          	mov    %rax,0x20(%rbp)
  40:	e8 00 00 00 00       	call   45 <_ZNSt8_Rb_treeIPvSt4pairIKS0_iESt10_Select1stIS3_ESt4lessIS0_ESaIS3_EE22_M_emplace_hint_uniqueIJRKSt21piecewise_construct_tSt5tupleIJRS2_EESE_IJEEEEESt17_Rb_tree_iteratorIS3_ESt23_Rb_tree_const_iteratorIS3_EDpOT_+0x45>
  45:	49 89 c4             	mov    %rax,%r12
  48:	48 85 d2             	test   %rdx,%rdx
  4b:	74 4b                	je     98 <_ZNSt8_Rb_treeIPvSt4pairIKS0_iESt10_Select1stIS3_ESt4lessIS0_ESaIS3_EE22_M_emplace_hint_uniqueIJRKSt21piecewise_construct_tSt5tupleIJRS2_EESE_IJEEEEESt17_Rb_tree_iteratorIS3_ESt23_Rb_tree_const_iteratorIS3_EDpOT_+0x98>
  4d:	48 8d 4b 08          	lea    0x8(%rbx),%rcx
  51:	bf 01 00 00 00       	mov    $0x1,%edi
  56:	48 85 c0             	test   %rax,%rax
  59:	74 25                	je     80 <_ZNSt8_Rb_treeIPvSt4pairIKS0_iESt10_Select1stIS3_ESt4lessIS0_ESaIS3_EE22_M_emplace_hint_uniqueIJRKSt21piecewise_construct_tSt5tupleIJRS2_EESE_IJEEEEESt17_Rb_tree_iteratorIS3_ESt23_Rb_tree_const_iteratorIS3_EDpOT_+0x80>
  5b:	48 89 ee             	mov    %rbp,%rsi
  5e:	e8 00 00 00 00       	call   63 <_ZNSt8_Rb_treeIPvSt4pairIKS0_iESt10_Select1stIS3_ESt4lessIS0_ESaIS3_EE22_M_emplace_hint_uniqueIJRKSt21piecewise_construct_tSt5tupleIJRS2_EESE_IJEEEEESt17_Rb_tree_iteratorIS3_ESt23_Rb_tree_const_iteratorIS3_EDpOT_+0x63>
  63:	48 83 43 28 01       	addq   $0x1,0x28(%rbx)
  68:	48 83 c4 08          	add    $0x8,%rsp
  6c:	48 89 e8             	mov    %rbp,%rax
  6f:	5b                   	pop    %rbx
  70:	5d                   	pop    %rbp
  71:	41 5c                	pop    %r12
  73:	41 5d                	pop    %r13
  75:	c3                   	ret    
  76:	66 2e 0f 1f 84 00 00 	cs nopw 0x0(%rax,%rax,1)
  7d:	00 00 00 
  80:	48 39 ca             	cmp    %rcx,%rdx
  83:	74 d6                	je     5b <_ZNSt8_Rb_treeIPvSt4pairIKS0_iESt10_Select1stIS3_ESt4lessIS0_ESaIS3_EE22_M_emplace_hint_uniqueIJRKSt21piecewise_construct_tSt5tupleIJRS2_EESE_IJEEEEESt17_Rb_tree_iteratorIS3_ESt23_Rb_tree_const_iteratorIS3_EDpOT_+0x5b>
  85:	31 ff                	xor    %edi,%edi
  87:	48 8b 42 20          	mov    0x20(%rdx),%rax
  8b:	48 39 45 20          	cmp    %rax,0x20(%rbp)
  8f:	40 0f 92 c7          	setb   %dil
  93:	eb c6                	jmp    5b <_ZNSt8_Rb_treeIPvSt4pairIKS0_iESt10_Select1stIS3_ESt4lessIS0_ESaIS3_EE22_M_emplace_hint_uniqueIJRKSt21piecewise_construct_tSt5tupleIJRS2_EESE_IJEEEEESt17_Rb_tree_iteratorIS3_ESt23_Rb_tree_const_iteratorIS3_EDpOT_+0x5b>
  95:	0f 1f 00             	nopl   (%rax)
  98:	48 89 ef             	mov    %rbp,%rdi
  9b:	e8 00 00 00 00       	call   a0 <_ZNSt8_Rb_treeIPvSt4pairIKS0_iESt10_Select1stIS3_ESt4lessIS0_ESaIS3_EE22_M_emplace_hint_uniqueIJRKSt21piecewise_construct_tSt5tupleIJRS2_EESE_IJEEEEESt17_Rb_tree_iteratorIS3_ESt23_Rb_tree_const_iteratorIS3_EDpOT_+0xa0>
  a0:	48 83 c4 08          	add    $0x8,%rsp
  a4:	4c 89 e0             	mov    %r12,%rax
  a7:	5b                   	pop    %rbx
  a8:	5d                   	pop    %rbp
  a9:	41 5c                	pop    %r12
  ab:	41 5d                	pop    %r13
  ad:	c3                   	ret    

Disassembly of section .text.unlikely._ZL28get_file_handle_from_addressPv:

0000000000000000 <_ZL28get_file_handle_from_addressPv.cold>:
   0:	48 8d 3d 00 00 00 00 	lea    0x0(%rip),%rdi        # 7 <_ZL28get_file_handle_from_addressPv.cold+0x7>
   7:	e8 00 00 00 00       	call   c <_ZL28get_file_handle_from_addressPv.cold+0xc>
   c:	48 89 ef             	mov    %rbp,%rdi
   f:	e8 00 00 00 00       	call   14 <.LC10+0x1>

Disassembly of section .text._ZL28get_file_handle_from_addressPv:

0000000000000000 <_ZL28get_file_handle_from_addressPv>:
   0:	41 54                	push   %r12
   2:	55                   	push   %rbp
   3:	48 8d 2d 00 00 00 00 	lea    0x0(%rip),%rbp        # a <_ZL28get_file_handle_from_addressPv+0xa>
   a:	53                   	push   %rbx
   b:	48 89 fb             	mov    %rdi,%rbx
   e:	48 8d 3d 00 00 00 00 	lea    0x0(%rip),%rdi        # 15 <_ZL28get_file_handle_from_addressPv+0x15>
  15:	48 83 ec 30          	sub    $0x30,%rsp
  19:	64 48 8b 04 25 28 00 	mov    %fs:0x28,%rax
  20:	00 00 
  22:	48 89 44 24 28       	mov    %rax,0x28(%rsp)
  27:	31 c0                	xor    %eax,%eax
  29:	e8 00 00 00 00       	call   2e <_ZL28get_file_handle_from_addressPv+0x2e>
  2e:	48 8b 3d 00 00 00 00 	mov    0x0(%rip),%rdi        # 35 <_ZL28get_file_handle_from_addressPv+0x35>
  35:	48 39 ef             	cmp    %rbp,%rdi
  38:	74 33                	je     6d <_ZL28get_file_handle_from_addressPv+0x6d>
  3a:	66 0f 1f 44 00 00    	nopw   0x0(%rax,%rax,1)
  40:	f3 0f 6f 47 20       	movdqu 0x20(%rdi),%xmm0
  45:	48 8b 57 20          	mov    0x20(%rdi),%rdx
  49:	0f 29 44 24 10       	movaps %xmm0,0x10(%rsp)
  4e:	48 39 da             	cmp    %rbx,%rdx
  51:	77 0d                	ja     60 <_ZL28get_file_handle_from_addressPv+0x60>
  53:	48 8b 44 24 18       	mov    0x18(%rsp),%rax
  58:	48 01 d0             	add    %rdx,%rax
  5b:	48 39 d8             	cmp    %rbx,%rax
  5e:	77 40                	ja     a0 <_ZL28get_file_handle_from_addressPv+0xa0>
  60:	e8 00 00 00 00       	call   65 <_ZL28get_file_handle_from_addressPv+0x65>
  65:	48 89 c7             	mov    %rax,%rdi
  68:	48 39 e8             	cmp    %rbp,%rax
  6b:	75 d3                	jne    40 <_ZL28get_file_handle_from_addressPv+0x40>
  6d:	41 bc ff ff ff ff    	mov    $0xffffffff,%r12d
  73:	48 8d 3d 00 00 00 00 	lea    0x0(%rip),%rdi        # 7a <_ZL28get_file_handle_from_addressPv+0x7a>
  7a:	e8 00 00 00 00       	call   7f <_ZL28get_file_handle_from_addressPv+0x7f>
  7f:	48 8b 44 24 28       	mov    0x28(%rsp),%rax
  84:	64 48 33 04 25 28 00 	xor    %fs:0x28,%rax
  8b:	00 00 
  8d:	0f 85 b6 00 00 00    	jne    149 <_ZL28get_file_handle_from_addressPv+0x149>
  93:	48 83 c4 30          	add    $0x30,%rsp
  97:	44 89 e0             	mov    %r12d,%eax
  9a:	5b                   	pop    %rbx
  9b:	5d                   	pop    %rbp
  9c:	41 5c                	pop    %r12
  9e:	c3                   	ret    
  9f:	90                   	nop
  a0:	48 8b 0d 00 00 00 00 	mov    0x0(%rip),%rcx        # a7 <_ZL28get_file_handle_from_addressPv+0xa7>
  a7:	48 85 c9             	test   %rcx,%rcx
  aa:	74 c1                	je     6d <_ZL28get_file_handle_from_addressPv+0x6d>
  ac:	48 8d 3d 00 00 00 00 	lea    0x0(%rip),%rdi        # b3 <_ZL28get_file_handle_from_addressPv+0xb3>
  b3:	48 89 c8             	mov    %rcx,%rax
  b6:	48 89 fe             	mov    %rdi,%rsi
  b9:	eb 11                	jmp    cc <_ZL28get_file_handle_from_addressPv+0xcc>
  bb:	0f 1f 44 00 00       	nopl   0x0(%rax,%rax,1)
  c0:	48 89 c6             	mov    %rax,%rsi
  c3:	48 8b 40 10          	mov    0x10(%rax),%rax
  c7:	48 85 c0             	test   %rax,%rax
  ca:	74 0f                	je     db <_ZL28get_file_handle_from_addressPv+0xdb>
  cc:	48 39 50 20          	cmp    %rdx,0x20(%rax)
  d0:	73 ee                	jae    c0 <_ZL28get_file_handle_from_addressPv+0xc0>
  d2:	48 8b 40 18          	mov    0x18(%rax),%rax
  d6:	48 85 c0             	test   %rax,%rax
  d9:	75 f1                	jne    cc <_ZL28get_file_handle_from_addressPv+0xcc>
  db:	48 39 fe             	cmp    %rdi,%rsi
  de:	74 8d                	je     6d <_ZL28get_file_handle_from_addressPv+0x6d>
  e0:	48 39 56 20          	cmp    %rdx,0x20(%rsi)
  e4:	77 87                	ja     6d <_ZL28get_file_handle_from_addressPv+0x6d>
  e6:	48 8d 35 00 00 00 00 	lea    0x0(%rip),%rsi        # ed <_ZL28get_file_handle_from_addressPv+0xed>
  ed:	eb 0d                	jmp    fc <_ZL28get_file_handle_from_addressPv+0xfc>
  ef:	90                   	nop
  f0:	48 89 ce             	mov    %rcx,%rsi
  f3:	48 8b 49 10          	mov    0x10(%rcx),%rcx
  f7:	48 85 c9             	test   %rcx,%rcx
  fa:	74 0f                	je     10b <_ZL28get_file_handle_from_addressPv+0x10b>
  fc:	48 39 51 20          	cmp    %rdx,0x20(%rcx)
 100:	73 ee                	jae    f0 <_ZL28get_file_handle_from_addressPv+0xf0>
 102:	48 8b 49 18          	mov    0x18(%rcx),%rcx
 106:	48 85 c9             	test   %rcx,%rcx
 109:	75 f1                	jne    fc <_ZL28get_file_handle_from_addressPv+0xfc>
 10b:	48 39 fe             	cmp    %rdi,%rsi
 10e:	74 06                	je     116 <_ZL28get_file_handle_from_addressPv+0x116>
 110:	48 39 56 20          	cmp    %rdx,0x20(%rsi)
 114:	76 2a                	jbe    140 <_ZL28get_file_handle_from_addressPv+0x140>
 116:	48 8b 15 00 00 00 00 	mov    0x0(%rip),%rdx        # 11d <_ZL28get_file_handle_from_addressPv+0x11d>
 11d:	48 8d 44 24 10       	lea    0x10(%rsp),%rax
 122:	48 8d 4c 24 08       	lea    0x8(%rsp),%rcx
 127:	4c 8d 44 24 07       	lea    0x7(%rsp),%r8
 12c:	48 8d 3d 00 00 00 00 	lea    0x0(%rip),%rdi        # 133 <_ZL28get_file_handle_from_addressPv+0x133>
 133:	48 89 44 24 08       	mov    %rax,0x8(%rsp)
 138:	e8 00 00 00 00       	call   13d <_ZL28get_file_handle_from_addressPv+0x13d>
 13d:	48 89 c6             	mov    %rax,%rsi
 140:	44 8b 66 28          	mov    0x28(%rsi),%r12d
 144:	e9 2a ff ff ff       	jmp    73 <_ZL28get_file_handle_from_addressPv+0x73>
 149:	e8 00 00 00 00       	call   14e <_ZL28get_file_handle_from_addressPv+0x14e>
 14e:	f3 0f 1e fa          	endbr64 
 152:	48 89 c5             	mov    %rax,%rbp
 155:	e9 00 00 00 00       	jmp    15a <.LC11+0x134>

Disassembly of section .text.enclave_alloc:

0000000000000000 <enclave_alloc>:
   0:	f3 0f 1e fa          	endbr64 
   4:	8b 05 00 00 00 00    	mov    0x0(%rip),%eax        # a <enclave_alloc+0xa>
   a:	41 54                	push   %r12
   c:	55                   	push   %rbp
   d:	53                   	push   %rbx
   e:	4c 89 c3             	mov    %r8,%rbx
  11:	83 f8 03             	cmp    $0x3,%eax
  14:	74 7a                	je     90 <enclave_alloc+0x90>
  16:	48 89 fd             	mov    %rdi,%rbp
  19:	49 89 f4             	mov    %rsi,%r12
  1c:	83 f8 02             	cmp    $0x2,%eax
  1f:	74 47                	je     68 <enclave_alloc+0x68>
  21:	e8 00 00 00 00       	call   26 <enclave_alloc+0x26>
  26:	41 89 c0             	mov    %eax,%r8d
  29:	83 f8 ff             	cmp    $0xffffffff,%eax
  2c:	0f 84 7e 00 00 00    	je     b0 <enclave_alloc+0xb0>
  32:	45 31 c9             	xor    %r9d,%r9d
  35:	b9 11 00 00 00       	mov    $0x11,%ecx
  3a:	ba 03 00 00 00       	mov    $0x3,%edx
  3f:	4c 89 e6             	mov    %r12,%rsi
  42:	48 89 ef             	mov    %rbp,%rdi
  45:	e8 00 00 00 00       	call   4a <enclave_alloc+0x4a>
  4a:	49 89 c0             	mov    %rax,%r8
  4d:	31 c0                	xor    %eax,%eax
  4f:	49 83 f8 ff          	cmp    $0xffffffffffffffff,%r8
  53:	74 73                	je     c8 <enclave_alloc+0xc8>
  55:	48 85 db             	test   %rbx,%rbx
  58:	74 02                	je     5c <enclave_alloc+0x5c>
  5a:	89 03                	mov    %eax,(%rbx)
  5c:	5b                   	pop    %rbx
  5d:	5d                   	pop    %rbp
  5e:	41 5c                	pop    %r12
  60:	c3                   	ret    
  61:	0f 1f 80 00 00 00 00 	nopl   0x0(%rax)
  68:	ba 03 00 00 00       	mov    $0x3,%edx
  6d:	e8 00 00 00 00       	call   72 <enclave_alloc+0x72>
  72:	41 89 c0             	mov    %eax,%r8d
  75:	31 c0                	xor    %eax,%eax
  77:	45 85 c0             	test   %r8d,%r8d
  7a:	74 e0                	je     5c <enclave_alloc+0x5c>
  7c:	b8 01 10 00 00       	mov    $0x1001,%eax
  81:	48 85 db             	test   %rbx,%rbx
  84:	74 d6                	je     5c <enclave_alloc+0x5c>
  86:	c7 03 01 10 00 00    	movl   $0x1001,(%rbx)
  8c:	eb ce                	jmp    5c <enclave_alloc+0x5c>
  8e:	66 90                	xchg   %ax,%ax
  90:	b8 01 00 00 00       	mov    $0x1,%eax
  95:	4d 85 c0             	test   %r8,%r8
  98:	74 c2                	je     5c <enclave_alloc+0x5c>
  9a:	41 c7 00 01 00 00 00 	movl   $0x1,(%r8)
  a1:	5b                   	pop    %rbx
  a2:	5d                   	pop    %rbp
  a3:	41 5c                	pop    %r12
  a5:	c3                   	ret    
  a6:	66 2e 0f 1f 84 00 00 	cs nopw 0x0(%rax,%rax,1)
  ad:	00 00 00 
  b0:	b8 0d 00 00 00       	mov    $0xd,%eax
  b5:	48 85 db             	test   %rbx,%rbx
  b8:	74 a2                	je     5c <enclave_alloc+0x5c>
  ba:	c7 03 0d 00 00 00    	movl   $0xd,(%rbx)
  c0:	eb 9a                	jmp    5c <enclave_alloc+0x5c>
  c2:	66 0f 1f 44 00 00    	nopw   0x0(%rax,%rax,1)
  c8:	e8 00 00 00 00       	call   cd <enclave_alloc+0xcd>
  cd:	8b 38                	mov    (%rax),%edi
  cf:	e8 00 00 00 00       	call   d4 <enclave_alloc+0xd4>
  d4:	e9 7c ff ff ff       	jmp    55 <enclave_alloc+0x55>

Disassembly of section .text.unlikely.enclave_modify:

0000000000000000 <enclave_modify.cold>:
   0:	48 8b 84 24 d0 00 00 	mov    0xd0(%rsp),%rax
   7:	00 
   8:	48 85 c0             	test   %rax,%rax
   b:	74 12                	je     1f <enclave_modify.cold+0x1f>
   d:	48 8d bc 24 c0 00 00 	lea    0xc0(%rsp),%rdi
  14:	00 
  15:	ba 03 00 00 00       	mov    $0x3,%edx
  1a:	48 89 fe             	mov    %rdi,%rsi
  1d:	ff d0                	call   *%rax
  1f:	48 8b 84 24 b0 00 00 	mov    0xb0(%rsp),%rax
  26:	00 
  27:	48 85 c0             	test   %rax,%rax
  2a:	74 12                	je     3e <enclave_modify.cold+0x3e>
  2c:	48 8d bc 24 a0 00 00 	lea    0xa0(%rsp),%rdi
  33:	00 
  34:	ba 03 00 00 00       	mov    $0x3,%edx
  39:	48 89 fe             	mov    %rdi,%rsi
  3c:	ff d0                	call   *%rax
  3e:	48 8b 84 24 90 00 00 	mov    0x90(%rsp),%rax
  45:	00 
  46:	48 85 c0             	test   %rax,%rax
  49:	74 12                	je     5d <enclave_modify.cold+0x5d>
  4b:	48 8d bc 24 80 00 00 	lea    0x80(%rsp),%rdi
  52:	00 
  53:	ba 03 00 00 00       	mov    $0x3,%edx
  58:	48 89 fe             	mov    %rdi,%rsi
  5b:	ff d0                	call   *%rax
  5d:	48 8b 44 24 70       	mov    0x70(%rsp),%rax
  62:	48 85 c0             	test   %rax,%rax
  65:	74 0f                	je     76 <enclave_modify.cold+0x76>
  67:	48 8d 7c 24 60       	lea    0x60(%rsp),%rdi
  6c:	ba 03 00 00 00       	mov    $0x3,%edx
  71:	48 89 fe             	mov    %rdi,%rsi
  74:	ff d0                	call   *%rax
  76:	48 89 ef             	mov    %rbp,%rdi
  79:	e8 00 00 00 00       	call   7e <.LC11+0x58>

Disassembly of section .text.enclave_modify:

0000000000000000 <enclave_modify>:
   0:	f3 0f 1e fa          	endbr64 
   4:	41 57                	push   %r15
   6:	41 56                	push   %r14
   8:	41 55                	push   %r13
   a:	41 54                	push   %r12
   c:	55                   	push   %rbp
   d:	53                   	push   %rbx
   e:	4c 89 c3             	mov    %r8,%rbx
  11:	48 81 ec 18 01 00 00 	sub    $0x118,%rsp
  18:	64 48 8b 04 25 28 00 	mov    %fs:0x28,%rax
  1f:	00 00 
  21:	48 89 84 24 08 01 00 	mov    %rax,0x108(%rsp)
  28:	00 
  29:	31 c0                	xor    %eax,%eax
  2b:	83 3d 00 00 00 00 03 	cmpl   $0x3,0x0(%rip)        # 32 <enclave_modify+0x32>
  32:	0f 84 48 02 00 00    	je     280 <enclave_modify+0x280>
  38:	48 89 fd             	mov    %rdi,%rbp
  3b:	49 89 f6             	mov    %rsi,%r14
  3e:	41 89 d5             	mov    %edx,%r13d
  41:	41 89 cc             	mov    %ecx,%r12d
  44:	e8 00 00 00 00       	call   49 <enclave_modify+0x49>
  49:	48 85 c0             	test   %rax,%rax
  4c:	0f 84 96 04 00 00    	je     4e8 <enclave_modify+0x4e8>
  52:	41 f7 c6 ff 0f 00 00 	test   $0xfff,%r14d
  59:	0f 85 09 02 00 00    	jne    268 <enclave_modify+0x268>
  5f:	48 8d 05 00 00 00 00 	lea    0x0(%rip),%rax        # 66 <enclave_modify+0x66>
  66:	4c 8b 3d 00 00 00 00 	mov    0x0(%rip),%r15        # 6d <enclave_modify+0x6d>
  6d:	48 89 ef             	mov    %rbp,%rdi
  70:	48 89 44 24 60       	mov    %rax,0x60(%rsp)
  75:	48 8b 05 00 00 00 00 	mov    0x0(%rip),%rax        # 7c <enclave_modify+0x7c>
  7c:	4c 89 7c 24 70       	mov    %r15,0x70(%rsp)
  81:	48 89 44 24 78       	mov    %rax,0x78(%rsp)
  86:	48 8d 05 00 00 00 00 	lea    0x0(%rip),%rax        # 8d <enclave_modify+0x8d>
  8d:	48 89 84 24 80 00 00 	mov    %rax,0x80(%rsp)
  94:	00 
  95:	48 8b 05 00 00 00 00 	mov    0x0(%rip),%rax        # 9c <enclave_modify+0x9c>
  9c:	4c 89 bc 24 90 00 00 	mov    %r15,0x90(%rsp)
  a3:	00 
  a4:	48 89 84 24 98 00 00 	mov    %rax,0x98(%rsp)
  ab:	00 
  ac:	48 8d 05 00 00 00 00 	lea    0x0(%rip),%rax        # b3 <enclave_modify+0xb3>
  b3:	48 89 84 24 a0 00 00 	mov    %rax,0xa0(%rsp)
  ba:	00 
  bb:	48 8b 05 00 00 00 00 	mov    0x0(%rip),%rax        # c2 <enclave_modify+0xc2>
  c2:	4c 89 bc 24 b0 00 00 	mov    %r15,0xb0(%rsp)
  c9:	00 
  ca:	48 89 84 24 b8 00 00 	mov    %rax,0xb8(%rsp)
  d1:	00 
  d2:	48 8d 05 00 00 00 00 	lea    0x0(%rip),%rax        # d9 <enclave_modify+0xd9>
  d9:	48 89 84 24 c0 00 00 	mov    %rax,0xc0(%rsp)
  e0:	00 
  e1:	48 8b 05 00 00 00 00 	mov    0x0(%rip),%rax        # e8 <enclave_modify+0xe8>
  e8:	48 89 84 24 d8 00 00 	mov    %rax,0xd8(%rsp)
  ef:	00 
  f0:	48 8b 05 00 00 00 00 	mov    0x0(%rip),%rax        # f7 <enclave_modify+0xf7>
  f7:	48 89 84 24 d0 00 00 	mov    %rax,0xd0(%rsp)
  fe:	00 
  ff:	e8 00 00 00 00       	call   104 <enclave_modify+0x104>
 104:	83 3d 00 00 00 00 02 	cmpl   $0x2,0x0(%rip)        # 10b <enclave_modify+0x10b>
 10b:	0f 84 d7 01 00 00    	je     2e8 <enclave_modify+0x2e8>
 111:	83 f8 ff             	cmp    $0xffffffff,%eax
 114:	0f 84 a6 01 00 00    	je     2c0 <enclave_modify+0x2c0>
 11a:	44 89 ea             	mov    %r13d,%edx
 11d:	44 89 e1             	mov    %r12d,%ecx
 120:	81 e2 00 ff 00 00    	and    $0xff00,%edx
 126:	81 e1 00 ff 00 00    	and    $0xff00,%ecx
 12c:	81 fa 00 04 00 00    	cmp    $0x400,%edx
 132:	75 0c                	jne    140 <enclave_modify+0x140>
 134:	81 f9 00 04 00 00    	cmp    $0x400,%ecx
 13a:	0f 85 58 01 00 00    	jne    298 <enclave_modify+0x298>
 140:	41 83 e4 07          	and    $0x7,%r12d
 144:	41 83 e5 07          	and    $0x7,%r13d
 148:	45 39 ec             	cmp    %r13d,%r12d
 14b:	40 0f 95 c6          	setne  %sil
 14f:	39 d1                	cmp    %edx,%ecx
 151:	74 09                	je     15c <enclave_modify+0x15c>
 153:	40 84 f6             	test   %sil,%sil
 156:	0f 85 3c 01 00 00    	jne    298 <enclave_modify+0x298>
 15c:	89 cf                	mov    %ecx,%edi
 15e:	21 d7                	and    %edx,%edi
 160:	f7 c7 00 04 00 00    	test   $0x400,%edi
 166:	0f 84 9c 03 00 00    	je     508 <enclave_modify+0x508>
 16c:	48 83 bc 24 90 00 00 	cmpq   $0x0,0x90(%rsp)
 173:	00 00 
 175:	89 44 24 0c          	mov    %eax,0xc(%rsp)
 179:	48 89 6c 24 20       	mov    %rbp,0x20(%rsp)
 17e:	4c 89 74 24 28       	mov    %r14,0x28(%rsp)
 183:	0f 84 a1 05 00 00    	je     72a <enclave_modify+0x72a>
 189:	48 8d 4c 24 28       	lea    0x28(%rsp),%rcx
 18e:	48 8d 54 24 20       	lea    0x20(%rsp),%rdx
 193:	48 8d 74 24 0c       	lea    0xc(%rsp),%rsi
 198:	48 8d bc 24 80 00 00 	lea    0x80(%rsp),%rdi
 19f:	00 
 1a0:	ff 94 24 98 00 00 00 	call   *0x98(%rsp)
 1a7:	85 c0                	test   %eax,%eax
 1a9:	0f 85 31 04 00 00    	jne    5e0 <enclave_modify+0x5e0>
 1af:	45 31 ed             	xor    %r13d,%r13d
 1b2:	45 85 e4             	test   %r12d,%r12d
 1b5:	0f 84 b5 03 00 00    	je     570 <enclave_modify+0x570>
 1bb:	48 8b 8c 24 d0 00 00 	mov    0xd0(%rsp),%rcx
 1c2:	00 
 1c3:	0f 1f 44 00 00       	nopl   0x0(%rax,%rax,1)
 1c8:	48 85 c9             	test   %rcx,%rcx
 1cb:	74 12                	je     1df <enclave_modify+0x1df>
 1cd:	48 8d bc 24 c0 00 00 	lea    0xc0(%rsp),%rdi
 1d4:	00 
 1d5:	ba 03 00 00 00       	mov    $0x3,%edx
 1da:	48 89 fe             	mov    %rdi,%rsi
 1dd:	ff d1                	call   *%rcx
 1df:	48 8b 84 24 b0 00 00 	mov    0xb0(%rsp),%rax
 1e6:	00 
 1e7:	48 85 c0             	test   %rax,%rax
 1ea:	74 12                	je     1fe <enclave_modify+0x1fe>
 1ec:	48 8d bc 24 a0 00 00 	lea    0xa0(%rsp),%rdi
 1f3:	00 
 1f4:	ba 03 00 00 00       	mov    $0x3,%edx
 1f9:	48 89 fe             	mov    %rdi,%rsi
 1fc:	ff d0                	call   *%rax
 1fe:	48 8b 84 24 90 00 00 	mov    0x90(%rsp),%rax
 205:	00 
 206:	48 85 c0             	test   %rax,%rax
 209:	74 12                	je     21d <enclave_modify+0x21d>
 20b:	48 8d bc 24 80 00 00 	lea    0x80(%rsp),%rdi
 212:	00 
 213:	ba 03 00 00 00       	mov    $0x3,%edx
 218:	48 89 fe             	mov    %rdi,%rsi
 21b:	ff d0                	call   *%rax
 21d:	48 8b 44 24 70       	mov    0x70(%rsp),%rax
 222:	48 85 c0             	test   %rax,%rax
 225:	74 0f                	je     236 <enclave_modify+0x236>
 227:	48 8d 7c 24 60       	lea    0x60(%rsp),%rdi
 22c:	ba 03 00 00 00       	mov    $0x3,%edx
 231:	48 89 fe             	mov    %rdi,%rsi
 234:	ff d0                	call   *%rax
 236:	48 8b 84 24 08 01 00 	mov    0x108(%rsp),%rax
 23d:	00 
 23e:	64 48 33 04 25 28 00 	xor    %fs:0x28,%rax
 245:	00 00 
 247:	0f 85 ce 04 00 00    	jne    71b <enclave_modify+0x71b>
 24d:	48 81 c4 18 01 00 00 	add    $0x118,%rsp
 254:	44 89 e8             	mov    %r13d,%eax
 257:	5b                   	pop    %rbx
 258:	5d                   	pop    %rbp
 259:	41 5c                	pop    %r12
 25b:	41 5d                	pop    %r13
 25d:	41 5e                	pop    %r14
 25f:	41 5f                	pop    %r15
 261:	c3                   	ret    
 262:	66 0f 1f 44 00 00    	nopw   0x0(%rax,%rax,1)
 268:	41 bd 09 00 00 00    	mov    $0x9,%r13d
 26e:	48 85 db             	test   %rbx,%rbx
 271:	74 c3                	je     236 <enclave_modify+0x236>
 273:	c7 03 09 00 00 00    	movl   $0x9,(%rbx)
 279:	eb bb                	jmp    236 <enclave_modify+0x236>
 27b:	0f 1f 44 00 00       	nopl   0x0(%rax,%rax,1)
 280:	41 bd 01 00 00 00    	mov    $0x1,%r13d
 286:	4d 85 c0             	test   %r8,%r8
 289:	74 ab                	je     236 <enclave_modify+0x236>
 28b:	41 c7 00 01 00 00 00 	movl   $0x1,(%r8)
 292:	eb a2                	jmp    236 <enclave_modify+0x236>
 294:	0f 1f 40 00          	nopl   0x0(%rax)
 298:	48 8b 8c 24 d0 00 00 	mov    0xd0(%rsp),%rcx
 29f:	00 
 2a0:	41 bd 09 00 00 00    	mov    $0x9,%r13d
 2a6:	48 85 db             	test   %rbx,%rbx
 2a9:	0f 84 19 ff ff ff    	je     1c8 <enclave_modify+0x1c8>
 2af:	c7 03 09 00 00 00    	movl   $0x9,(%rbx)
 2b5:	e9 0e ff ff ff       	jmp    1c8 <enclave_modify+0x1c8>
 2ba:	66 0f 1f 44 00 00    	nopw   0x0(%rax,%rax,1)
 2c0:	48 8b 8c 24 d0 00 00 	mov    0xd0(%rsp),%rcx
 2c7:	00 
 2c8:	41 bd 0d 00 00 00    	mov    $0xd,%r13d
 2ce:	48 85 db             	test   %rbx,%rbx
 2d1:	0f 84 f1 fe ff ff    	je     1c8 <enclave_modify+0x1c8>
 2d7:	c7 03 0d 00 00 00    	movl   $0xd,(%rbx)
 2dd:	e9 e6 fe ff ff       	jmp    1c8 <enclave_modify+0x1c8>
 2e2:	66 0f 1f 44 00 00    	nopw   0x0(%rax,%rax,1)
 2e8:	48 8d 05 00 00 00 00 	lea    0x0(%rip),%rax        # 2ef <enclave_modify+0x2ef>
 2ef:	66 0f 6f 4c 24 60    	movdqa 0x60(%rsp),%xmm1
 2f5:	48 8b 54 24 78       	mov    0x78(%rsp),%rdx
 2fa:	48 89 84 24 e0 00 00 	mov    %rax,0xe0(%rsp)
 301:	00 
 302:	48 8b 35 00 00 00 00 	mov    0x0(%rip),%rsi        # 309 <enclave_modify+0x309>
 309:	66 0f 6f 84 24 e0 00 	movdqa 0xe0(%rsp),%xmm0
 310:	00 00 
 312:	48 8b 44 24 70       	mov    0x70(%rsp),%rax
 317:	48 89 94 24 f8 00 00 	mov    %rdx,0xf8(%rsp)
 31e:	00 
 31f:	4c 89 7c 24 70       	mov    %r15,0x70(%rsp)
 324:	48 89 84 24 f0 00 00 	mov    %rax,0xf0(%rsp)
 32b:	00 
 32c:	48 89 74 24 78       	mov    %rsi,0x78(%rsp)
 331:	0f 29 8c 24 e0 00 00 	movaps %xmm1,0xe0(%rsp)
 338:	00 
 339:	0f 29 44 24 60       	movaps %xmm0,0x60(%rsp)
 33e:	48 85 c0             	test   %rax,%rax
 341:	74 12                	je     355 <enclave_modify+0x355>
 343:	48 8d bc 24 e0 00 00 	lea    0xe0(%rsp),%rdi
 34a:	00 
 34b:	ba 03 00 00 00       	mov    $0x3,%edx
 350:	48 89 fe             	mov    %rdi,%rsi
 353:	ff d0                	call   *%rax
 355:	48 8d 05 00 00 00 00 	lea    0x0(%rip),%rax        # 35c <enclave_modify+0x35c>
 35c:	48 8b 94 24 98 00 00 	mov    0x98(%rsp),%rdx
 363:	00 
 364:	66 0f 6f 94 24 80 00 	movdqa 0x80(%rsp),%xmm2
 36b:	00 00 
 36d:	48 89 84 24 e0 00 00 	mov    %rax,0xe0(%rsp)
 374:	00 
 375:	48 8b 35 00 00 00 00 	mov    0x0(%rip),%rsi        # 37c <enclave_modify+0x37c>
 37c:	48 8b 84 24 90 00 00 	mov    0x90(%rsp),%rax
 383:	00 
 384:	48 89 94 24 f8 00 00 	mov    %rdx,0xf8(%rsp)
 38b:	00 
 38c:	66 0f 6f 84 24 e0 00 	movdqa 0xe0(%rsp),%xmm0
 393:	00 00 
 395:	4c 89 bc 24 90 00 00 	mov    %r15,0x90(%rsp)
 39c:	00 
 39d:	48 89 84 24 f0 00 00 	mov    %rax,0xf0(%rsp)
 3a4:	00 
 3a5:	48 89 b4 24 98 00 00 	mov    %rsi,0x98(%rsp)
 3ac:	00 
 3ad:	0f 29 94 24 e0 00 00 	movaps %xmm2,0xe0(%rsp)
 3b4:	00 
 3b5:	0f 29 84 24 80 00 00 	movaps %xmm0,0x80(%rsp)
 3bc:	00 
 3bd:	48 85 c0             	test   %rax,%rax
 3c0:	74 12                	je     3d4 <enclave_modify+0x3d4>
 3c2:	48 8d bc 24 e0 00 00 	lea    0xe0(%rsp),%rdi
 3c9:	00 
 3ca:	ba 03 00 00 00       	mov    $0x3,%edx
 3cf:	48 89 fe             	mov    %rdi,%rsi
 3d2:	ff d0                	call   *%rax
 3d4:	48 8d 05 00 00 00 00 	lea    0x0(%rip),%rax        # 3db <enclave_modify+0x3db>
 3db:	48 8b 94 24 b8 00 00 	mov    0xb8(%rsp),%rdx
 3e2:	00 
 3e3:	66 0f 6f 9c 24 a0 00 	movdqa 0xa0(%rsp),%xmm3
 3ea:	00 00 
 3ec:	48 89 84 24 e0 00 00 	mov    %rax,0xe0(%rsp)
 3f3:	00 
 3f4:	48 8b 35 00 00 00 00 	mov    0x0(%rip),%rsi        # 3fb <enclave_modify+0x3fb>
 3fb:	48 8b 84 24 b0 00 00 	mov    0xb0(%rsp),%rax
 402:	00 
 403:	48 89 94 24 f8 00 00 	mov    %rdx,0xf8(%rsp)
 40a:	00 
 40b:	66 0f 6f 84 24 e0 00 	movdqa 0xe0(%rsp),%xmm0
 412:	00 00 
 414:	4c 89 bc 24 b0 00 00 	mov    %r15,0xb0(%rsp)
 41b:	00 
 41c:	48 89 84 24 f0 00 00 	mov    %rax,0xf0(%rsp)
 423:	00 
 424:	48 89 b4 24 b8 00 00 	mov    %rsi,0xb8(%rsp)
 42b:	00 
 42c:	0f 29 9c 24 e0 00 00 	movaps %xmm3,0xe0(%rsp)
 433:	00 
 434:	0f 29 84 24 a0 00 00 	movaps %xmm0,0xa0(%rsp)
 43b:	00 
 43c:	48 85 c0             	test   %rax,%rax
 43f:	74 12                	je     453 <enclave_modify+0x453>
 441:	48 8d bc 24 e0 00 00 	lea    0xe0(%rsp),%rdi
 448:	00 
 449:	ba 03 00 00 00       	mov    $0x3,%edx
 44e:	48 89 fe             	mov    %rdi,%rsi
 451:	ff d0                	call   *%rax
 453:	48 8b 35 00 00 00 00 	mov    0x0(%rip),%rsi        # 45a <enclave_modify+0x45a>
 45a:	48 8d 05 00 00 00 00 	lea    0x0(%rip),%rax        # 461 <enclave_modify+0x461>
 461:	66 0f 6f a4 24 c0 00 	movdqa 0xc0(%rsp),%xmm4
 468:	00 00 
 46a:	48 89 84 24 e0 00 00 	mov    %rax,0xe0(%rsp)
 471:	00 
 472:	48 8b 94 24 d8 00 00 	mov    0xd8(%rsp),%rdx
 479:	00 
 47a:	66 0f 6f 84 24 e0 00 	movdqa 0xe0(%rsp),%xmm0
 481:	00 00 
 483:	48 8b 84 24 d0 00 00 	mov    0xd0(%rsp),%rax
 48a:	00 
 48b:	48 89 b4 24 d0 00 00 	mov    %rsi,0xd0(%rsp)
 492:	00 
 493:	48 8b 35 00 00 00 00 	mov    0x0(%rip),%rsi        # 49a <enclave_modify+0x49a>
 49a:	48 89 94 24 f8 00 00 	mov    %rdx,0xf8(%rsp)
 4a1:	00 
 4a2:	48 89 84 24 f0 00 00 	mov    %rax,0xf0(%rsp)
 4a9:	00 
 4aa:	48 89 b4 24 d8 00 00 	mov    %rsi,0xd8(%rsp)
 4b1:	00 
 4b2:	0f 29 a4 24 e0 00 00 	movaps %xmm4,0xe0(%rsp)
 4b9:	00 
 4ba:	0f 29 84 24 c0 00 00 	movaps %xmm0,0xc0(%rsp)
 4c1:	00 
 4c2:	48 85 c0             	test   %rax,%rax
 4c5:	74 12                	je     4d9 <enclave_modify+0x4d9>
 4c7:	48 8d bc 24 e0 00 00 	lea    0xe0(%rsp),%rdi
 4ce:	00 
 4cf:	ba 03 00 00 00       	mov    $0x3,%edx
 4d4:	48 89 fe             	mov    %rdi,%rsi
 4d7:	ff d0                	call   *%rax
 4d9:	8b 05 00 00 00 00    	mov    0x0(%rip),%eax        # 4df <enclave_modify+0x4df>
 4df:	e9 2d fc ff ff       	jmp    111 <enclave_modify+0x111>
 4e4:	0f 1f 40 00          	nopl   0x0(%rax)
 4e8:	41 bd 0d 00 00 00    	mov    $0xd,%r13d
 4ee:	48 85 db             	test   %rbx,%rbx
 4f1:	0f 84 3f fd ff ff    	je     236 <enclave_modify+0x236>
 4f7:	c7 03 0d 00 00 00    	movl   $0xd,(%rbx)
 4fd:	e9 34 fd ff ff       	jmp    236 <enclave_modify+0x236>
 502:	66 0f 1f 44 00 00    	nopw   0x0(%rax,%rax,1)
 508:	81 f9 00 04 00 00    	cmp    $0x400,%ecx
 50e:	0f 84 7c 00 00 00    	je     590 <enclave_modify+0x590>
 514:	81 f9 00 01 00 00    	cmp    $0x100,%ecx
 51a:	0f 84 e8 00 00 00    	je     608 <enclave_modify+0x608>
 520:	39 d1                	cmp    %edx,%ecx
 522:	0f 85 70 fd ff ff    	jne    298 <enclave_modify+0x298>
 528:	45 39 ec             	cmp    %r13d,%r12d
 52b:	0f 85 32 01 00 00    	jne    663 <enclave_modify+0x663>
 531:	45 85 e4             	test   %r12d,%r12d
 534:	0f 85 29 01 00 00    	jne    663 <enclave_modify+0x663>
 53a:	31 d2                	xor    %edx,%edx
 53c:	4c 89 f6             	mov    %r14,%rsi
 53f:	48 89 ef             	mov    %rbp,%rdi
 542:	e8 00 00 00 00       	call   547 <enclave_modify+0x547>
 547:	83 f8 ff             	cmp    $0xffffffff,%eax
 54a:	0f 84 a6 01 00 00    	je     6f6 <enclave_modify+0x6f6>
 550:	48 8b 8c 24 d0 00 00 	mov    0xd0(%rsp),%rcx
 557:	00 
 558:	48 85 db             	test   %rbx,%rbx
 55b:	74 06                	je     563 <enclave_modify+0x563>
 55d:	c7 03 00 00 00 00    	movl   $0x0,(%rbx)
 563:	45 31 ed             	xor    %r13d,%r13d
 566:	e9 5d fc ff ff       	jmp    1c8 <enclave_modify+0x1c8>
 56b:	0f 1f 44 00 00       	nopl   0x0(%rax,%rax,1)
 570:	31 d2                	xor    %edx,%edx
 572:	4c 89 f6             	mov    %r14,%rsi
 575:	48 89 ef             	mov    %rbp,%rdi
 578:	e8 00 00 00 00       	call   57d <enclave_modify+0x57d>
 57d:	83 f8 ff             	cmp    $0xffffffff,%eax
 580:	0f 84 70 01 00 00    	je     6f6 <enclave_modify+0x6f6>
 586:	41 89 c5             	mov    %eax,%r13d
 589:	e9 2d fc ff ff       	jmp    1bb <enclave_modify+0x1bb>
 58e:	66 90                	xchg   %ax,%ax
 590:	45 39 ec             	cmp    %r13d,%r12d
 593:	0f 85 ff fc ff ff    	jne    298 <enclave_modify+0x298>
 599:	48 83 7c 24 70 00    	cmpq   $0x0,0x70(%rsp)
 59f:	89 44 24 10          	mov    %eax,0x10(%rsp)
 5a3:	48 89 6c 24 30       	mov    %rbp,0x30(%rsp)
 5a8:	4c 89 74 24 38       	mov    %r14,0x38(%rsp)
 5ad:	0f 84 7c 01 00 00    	je     72f <enclave_modify+0x72f>
 5b3:	48 8d 4c 24 38       	lea    0x38(%rsp),%rcx
 5b8:	48 8d 54 24 30       	lea    0x30(%rsp),%rdx
 5bd:	48 8d 74 24 10       	lea    0x10(%rsp),%rsi
 5c2:	48 8d 7c 24 60       	lea    0x60(%rsp),%rdi
 5c7:	ff 54 24 78          	call   *0x78(%rsp)
 5cb:	85 c0                	test   %eax,%eax
 5cd:	75 11                	jne    5e0 <enclave_modify+0x5e0>
 5cf:	48 8b 8c 24 d0 00 00 	mov    0xd0(%rsp),%rcx
 5d6:	00 
 5d7:	45 31 ed             	xor    %r13d,%r13d
 5da:	e9 e9 fb ff ff       	jmp    1c8 <enclave_modify+0x1c8>
 5df:	90                   	nop
 5e0:	89 c7                	mov    %eax,%edi
 5e2:	e8 00 00 00 00       	call   5e7 <enclave_modify+0x5e7>
 5e7:	48 8b 8c 24 d0 00 00 	mov    0xd0(%rsp),%rcx
 5ee:	00 
 5ef:	41 89 c5             	mov    %eax,%r13d
 5f2:	48 85 db             	test   %rbx,%rbx
 5f5:	0f 84 cd fb ff ff    	je     1c8 <enclave_modify+0x1c8>
 5fb:	89 03                	mov    %eax,(%rbx)
 5fd:	e9 c6 fb ff ff       	jmp    1c8 <enclave_modify+0x1c8>
 602:	66 0f 1f 44 00 00    	nopw   0x0(%rax,%rax,1)
 608:	81 fa 00 02 00 00    	cmp    $0x200,%edx
 60e:	0f 85 84 fc ff ff    	jne    298 <enclave_modify+0x298>
 614:	41 83 fd 03          	cmp    $0x3,%r13d
 618:	74 09                	je     623 <enclave_modify+0x623>
 61a:	40 84 f6             	test   %sil,%sil
 61d:	0f 85 75 fc ff ff    	jne    298 <enclave_modify+0x298>
 623:	48 83 bc 24 b0 00 00 	cmpq   $0x0,0xb0(%rsp)
 62a:	00 00 
 62c:	89 44 24 14          	mov    %eax,0x14(%rsp)
 630:	48 89 6c 24 40       	mov    %rbp,0x40(%rsp)
 635:	4c 89 74 24 48       	mov    %r14,0x48(%rsp)
 63a:	0f 84 e5 00 00 00    	je     725 <enclave_modify+0x725>
 640:	48 8d 4c 24 48       	lea    0x48(%rsp),%rcx
 645:	48 8d 54 24 40       	lea    0x40(%rsp),%rdx
 64a:	48 8d 74 24 14       	lea    0x14(%rsp),%rsi
 64f:	48 8d bc 24 a0 00 00 	lea    0xa0(%rsp),%rdi
 656:	00 
 657:	ff 94 24 b8 00 00 00 	call   *0xb8(%rsp)
 65e:	e9 68 ff ff ff       	jmp    5cb <enclave_modify+0x5cb>
 663:	48 8b 8c 24 d0 00 00 	mov    0xd0(%rsp),%rcx
 66a:	00 
 66b:	45 39 ec             	cmp    %r13d,%r12d
 66e:	0f 84 dc fe ff ff    	je     550 <enclave_modify+0x550>
 674:	81 ff 00 02 00 00    	cmp    $0x200,%edi
 67a:	0f 85 87 00 00 00    	jne    707 <enclave_modify+0x707>
 680:	89 44 24 18          	mov    %eax,0x18(%rsp)
 684:	48 89 6c 24 50       	mov    %rbp,0x50(%rsp)
 689:	4c 89 74 24 58       	mov    %r14,0x58(%rsp)
 68e:	44 89 64 24 1c       	mov    %r12d,0x1c(%rsp)
 693:	48 85 c9             	test   %rcx,%rcx
 696:	0f 84 84 00 00 00    	je     720 <enclave_modify+0x720>
 69c:	48 8d 4c 24 58       	lea    0x58(%rsp),%rcx
 6a1:	48 8d 54 24 50       	lea    0x50(%rsp),%rdx
 6a6:	48 8d 74 24 18       	lea    0x18(%rsp),%rsi
 6ab:	48 8d bc 24 c0 00 00 	lea    0xc0(%rsp),%rdi
 6b2:	00 
 6b3:	4c 8d 44 24 1c       	lea    0x1c(%rsp),%r8
 6b8:	ff 94 24 d8 00 00 00 	call   *0xd8(%rsp)
 6bf:	85 c0                	test   %eax,%eax
 6c1:	0f 85 19 ff ff ff    	jne    5e0 <enclave_modify+0x5e0>
 6c7:	45 31 ed             	xor    %r13d,%r13d
 6ca:	45 85 e4             	test   %r12d,%r12d
 6cd:	75 11                	jne    6e0 <enclave_modify+0x6e0>
 6cf:	48 85 db             	test   %rbx,%rbx
 6d2:	0f 84 e3 fa ff ff    	je     1bb <enclave_modify+0x1bb>
 6d8:	44 89 2b             	mov    %r13d,(%rbx)
 6db:	e9 db fa ff ff       	jmp    1bb <enclave_modify+0x1bb>
 6e0:	44 89 e2             	mov    %r12d,%edx
 6e3:	4c 89 f6             	mov    %r14,%rsi
 6e6:	48 89 ef             	mov    %rbp,%rdi
 6e9:	e8 00 00 00 00       	call   6ee <enclave_modify+0x6ee>
 6ee:	41 89 c5             	mov    %eax,%r13d
 6f1:	83 f8 ff             	cmp    $0xffffffff,%eax
 6f4:	75 d9                	jne    6cf <enclave_modify+0x6cf>
 6f6:	e8 00 00 00 00       	call   6fb <enclave_modify+0x6fb>
 6fb:	8b 38                	mov    (%rax),%edi
 6fd:	e8 00 00 00 00       	call   702 <enclave_modify+0x702>
 702:	e9 e0 fe ff ff       	jmp    5e7 <enclave_modify+0x5e7>
 707:	41 bd 09 00 00 00    	mov    $0x9,%r13d
 70d:	48 85 db             	test   %rbx,%rbx
 710:	0f 85 99 fb ff ff    	jne    2af <enclave_modify+0x2af>
 716:	e9 ad fa ff ff       	jmp    1c8 <enclave_modify+0x1c8>
 71b:	e8 00 00 00 00       	call   720 <enclave_modify+0x720>
 720:	e8 00 00 00 00       	call   725 <enclave_modify+0x725>
 725:	e8 00 00 00 00       	call   72a <enclave_modify+0x72a>
 72a:	e8 00 00 00 00       	call   72f <enclave_modify+0x72f>
 72f:	e8 00 00 00 00       	call   734 <enclave_modify+0x734>
 734:	f3 0f 1e fa          	endbr64 
 738:	48 89 c5             	mov    %rax,%rbp
 73b:	e9 00 00 00 00       	jmp    740 <.LC11+0x71a>

Disassembly of section .text.unlikely.enclave_delete:

0000000000000000 <enclave_delete.cold>:
   0:	48 8d 3d 00 00 00 00 	lea    0x0(%rip),%rdi        # 7 <enclave_delete.cold+0x7>
   7:	e8 00 00 00 00       	call   c <enclave_delete.cold+0xc>
   c:	48 89 ef             	mov    %rbp,%rdi
   f:	e8 00 00 00 00       	call   14 <.LC10+0x1>

Disassembly of section .text.enclave_delete:

0000000000000000 <enclave_delete>:
   0:	f3 0f 1e fa          	endbr64 
   4:	41 55                	push   %r13
   6:	41 54                	push   %r12
   8:	55                   	push   %rbp
   9:	53                   	push   %rbx
   a:	48 89 f3             	mov    %rsi,%rbx
   d:	48 83 ec 38          	sub    $0x38,%rsp
  11:	48 89 7c 24 08       	mov    %rdi,0x8(%rsp)
  16:	64 48 8b 0c 25 28 00 	mov    %fs:0x28,%rcx
  1d:	00 00 
  1f:	48 89 4c 24 28       	mov    %rcx,0x28(%rsp)
  24:	31 c9                	xor    %ecx,%ecx
  26:	48 85 ff             	test   %rdi,%rdi
  29:	0f 84 21 01 00 00    	je     150 <enclave_delete+0x150>
  2f:	48 8d 3d 00 00 00 00 	lea    0x0(%rip),%rdi        # 36 <enclave_delete+0x36>
  36:	e8 00 00 00 00       	call   3b <enclave_delete+0x3b>
  3b:	48 8b 05 00 00 00 00 	mov    0x0(%rip),%rax        # 42 <enclave_delete+0x42>
  42:	48 85 c0             	test   %rax,%rax
  45:	74 3f                	je     86 <enclave_delete+0x86>
  47:	48 8d 35 00 00 00 00 	lea    0x0(%rip),%rsi        # 4e <enclave_delete+0x4e>
  4e:	48 8b 54 24 08       	mov    0x8(%rsp),%rdx
  53:	48 89 f1             	mov    %rsi,%rcx
  56:	eb 14                	jmp    6c <enclave_delete+0x6c>
  58:	0f 1f 84 00 00 00 00 	nopl   0x0(%rax,%rax,1)
  5f:	00 
  60:	48 89 c1             	mov    %rax,%rcx
  63:	48 8b 40 10          	mov    0x10(%rax),%rax
  67:	48 85 c0             	test   %rax,%rax
  6a:	74 0f                	je     7b <enclave_delete+0x7b>
  6c:	48 39 50 20          	cmp    %rdx,0x20(%rax)
  70:	73 ee                	jae    60 <enclave_delete+0x60>
  72:	48 8b 40 18          	mov    0x18(%rax),%rax
  76:	48 85 c0             	test   %rax,%rax
  79:	75 f1                	jne    6c <enclave_delete+0x6c>
  7b:	48 39 f1             	cmp    %rsi,%rcx
  7e:	74 06                	je     86 <enclave_delete+0x86>
  80:	48 39 51 20          	cmp    %rdx,0x20(%rcx)
  84:	76 3a                	jbe    c0 <enclave_delete+0xc0>
  86:	48 85 db             	test   %rbx,%rbx
  89:	74 06                	je     91 <enclave_delete+0x91>
  8b:	c7 03 09 00 00 00    	movl   $0x9,(%rbx)
  91:	48 8d 3d 00 00 00 00 	lea    0x0(%rip),%rdi        # 98 <enclave_delete+0x98>
  98:	e8 00 00 00 00       	call   9d <enclave_delete+0x9d>
  9d:	31 c0                	xor    %eax,%eax
  9f:	48 8b 5c 24 28       	mov    0x28(%rsp),%rbx
  a4:	64 48 33 1c 25 28 00 	xor    %fs:0x28,%rbx
  ab:	00 00 
  ad:	0f 85 7c 01 00 00    	jne    22f <enclave_delete+0x22f>
  b3:	48 83 c4 38          	add    $0x38,%rsp
  b7:	5b                   	pop    %rbx
  b8:	5d                   	pop    %rbp
  b9:	41 5c                	pop    %r12
  bb:	41 5d                	pop    %r13
  bd:	c3                   	ret    
  be:	66 90                	xchg   %ax,%ax
  c0:	48 8d 6c 24 08       	lea    0x8(%rsp),%rbp
  c5:	48 8d 3d 00 00 00 00 	lea    0x0(%rip),%rdi        # cc <enclave_delete+0xcc>
  cc:	4c 8b 61 28          	mov    0x28(%rcx),%r12
  d0:	48 89 ee             	mov    %rbp,%rsi
  d3:	e8 00 00 00 00       	call   d8 <enclave_delete+0xd8>
  d8:	48 89 ee             	mov    %rbp,%rsi
  db:	48 8d 3d 00 00 00 00 	lea    0x0(%rip),%rdi        # e2 <enclave_delete+0xe2>
  e2:	e8 00 00 00 00       	call   e7 <enclave_delete+0xe7>
  e7:	48 89 ee             	mov    %rbp,%rsi
  ea:	48 8d 3d 00 00 00 00 	lea    0x0(%rip),%rdi        # f1 <enclave_delete+0xf1>
  f1:	e8 00 00 00 00       	call   f6 <enclave_delete+0xf6>
  f6:	83 3d 00 00 00 00 01 	cmpl   $0x1,0x0(%rip)        # fd <enclave_delete+0xfd>
  fd:	0f 84 85 00 00 00    	je     188 <enclave_delete+0x188>
 103:	48 89 ee             	mov    %rbp,%rsi
 106:	48 8d 3d 00 00 00 00 	lea    0x0(%rip),%rdi        # 10d <enclave_delete+0x10d>
 10d:	e8 00 00 00 00       	call   112 <enclave_delete+0x112>
 112:	48 8d 3d 00 00 00 00 	lea    0x0(%rip),%rdi        # 119 <enclave_delete+0x119>
 119:	e8 00 00 00 00       	call   11e <enclave_delete+0x11e>
 11e:	48 8b 7c 24 08       	mov    0x8(%rsp),%rdi
 123:	4c 89 e6             	mov    %r12,%rsi
 126:	e8 00 00 00 00       	call   12b <enclave_delete+0x12b>
 12b:	85 c0                	test   %eax,%eax
 12d:	75 39                	jne    168 <enclave_delete+0x168>
 12f:	b8 01 00 00 00       	mov    $0x1,%eax
 134:	48 85 db             	test   %rbx,%rbx
 137:	0f 84 62 ff ff ff    	je     9f <enclave_delete+0x9f>
 13d:	c7 03 00 00 00 00    	movl   $0x0,(%rbx)
 143:	e9 57 ff ff ff       	jmp    9f <enclave_delete+0x9f>
 148:	0f 1f 84 00 00 00 00 	nopl   0x0(%rax,%rax,1)
 14f:	00 
 150:	48 85 f6             	test   %rsi,%rsi
 153:	74 28                	je     17d <enclave_delete+0x17d>
 155:	c7 03 09 00 00 00    	movl   $0x9,(%rbx)
 15b:	31 c0                	xor    %eax,%eax
 15d:	e9 3d ff ff ff       	jmp    9f <enclave_delete+0x9f>
 162:	66 0f 1f 44 00 00    	nopw   0x0(%rax,%rax,1)
 168:	48 85 db             	test   %rbx,%rbx
 16b:	74 10                	je     17d <enclave_delete+0x17d>
 16d:	e8 00 00 00 00       	call   172 <enclave_delete+0x172>
 172:	83 38 16             	cmpl   $0x16,(%rax)
 175:	74 de                	je     155 <enclave_delete+0x155>
 177:	c7 03 01 10 00 00    	movl   $0x1001,(%rbx)
 17d:	31 c0                	xor    %eax,%eax
 17f:	e9 1b ff ff ff       	jmp    9f <enclave_delete+0x9f>
 184:	0f 1f 40 00          	nopl   0x0(%rax)
 188:	48 8b 15 00 00 00 00 	mov    0x0(%rip),%rdx        # 18f <enclave_delete+0x18f>
 18f:	48 85 d2             	test   %rdx,%rdx
 192:	0f 84 8e 00 00 00    	je     226 <enclave_delete+0x226>
 198:	48 8d 0d 00 00 00 00 	lea    0x0(%rip),%rcx        # 19f <enclave_delete+0x19f>
 19f:	48 8b 44 24 08       	mov    0x8(%rsp),%rax
 1a4:	48 89 ce             	mov    %rcx,%rsi
 1a7:	eb 13                	jmp    1bc <enclave_delete+0x1bc>
 1a9:	0f 1f 80 00 00 00 00 	nopl   0x0(%rax)
 1b0:	48 89 d6             	mov    %rdx,%rsi
 1b3:	48 8b 52 10          	mov    0x10(%rdx),%rdx
 1b7:	48 85 d2             	test   %rdx,%rdx
 1ba:	74 0f                	je     1cb <enclave_delete+0x1cb>
 1bc:	48 39 42 20          	cmp    %rax,0x20(%rdx)
 1c0:	73 ee                	jae    1b0 <enclave_delete+0x1b0>
 1c2:	48 8b 52 18          	mov    0x18(%rdx),%rdx
 1c6:	48 85 d2             	test   %rdx,%rdx
 1c9:	75 f1                	jne    1bc <enclave_delete+0x1bc>
 1cb:	48 39 ce             	cmp    %rcx,%rsi
 1ce:	74 0b                	je     1db <enclave_delete+0x1db>
 1d0:	4c 8d 6c 24 20       	lea    0x20(%rsp),%r13
 1d5:	48 39 46 20          	cmp    %rax,0x20(%rsi)
 1d9:	76 28                	jbe    203 <enclave_delete+0x203>
 1db:	4c 8d 6c 24 20       	lea    0x20(%rsp),%r13
 1e0:	48 8b 15 00 00 00 00 	mov    0x0(%rip),%rdx        # 1e7 <enclave_delete+0x1e7>
 1e7:	4c 8d 44 24 1f       	lea    0x1f(%rsp),%r8
 1ec:	48 89 6c 24 20       	mov    %rbp,0x20(%rsp)
 1f1:	4c 89 e9             	mov    %r13,%rcx
 1f4:	48 8d 3d 00 00 00 00 	lea    0x0(%rip),%rdi        # 1fb <enclave_delete+0x1fb>
 1fb:	e8 00 00 00 00       	call   200 <enclave_delete+0x200>
 200:	48 89 c6             	mov    %rax,%rsi
 203:	8b 46 28             	mov    0x28(%rsi),%eax
 206:	4c 89 ef             	mov    %r13,%rdi
 209:	89 44 24 20          	mov    %eax,0x20(%rsp)
 20d:	e8 00 00 00 00       	call   212 <enclave_delete+0x212>
 212:	48 89 ee             	mov    %rbp,%rsi
 215:	48 8d 3d 00 00 00 00 	lea    0x0(%rip),%rdi        # 21c <enclave_delete+0x21c>
 21c:	e8 00 00 00 00       	call   221 <enclave_delete+0x221>
 221:	e9 dd fe ff ff       	jmp    103 <enclave_delete+0x103>
 226:	48 8d 35 00 00 00 00 	lea    0x0(%rip),%rsi        # 22d <enclave_delete+0x22d>
 22d:	eb ac                	jmp    1db <enclave_delete+0x1db>
 22f:	e8 00 00 00 00       	call   234 <enclave_delete+0x234>
 234:	f3 0f 1e fa          	endbr64 
 238:	48 89 c5             	mov    %rax,%rbp
 23b:	e9 00 00 00 00       	jmp    240 <.LC11+0x21a>

Disassembly of section .text._ZNSt8_Rb_treeIPvSt4pairIKS0_15enclave_elrangeESt10_Select1stIS4_ESt4lessIS0_ESaIS4_EE24_M_get_insert_unique_posERS2_:

0000000000000000 <_ZNSt8_Rb_treeIPvSt4pairIKS0_15enclave_elrangeESt10_Select1stIS4_ESt4lessIS0_ESaIS4_EE24_M_get_insert_unique_posERS2_>:
   0:	f3 0f 1e fa          	endbr64 
   4:	55                   	push   %rbp
   5:	48 89 f5             	mov    %rsi,%rbp
   8:	53                   	push   %rbx
   9:	48 83 ec 08          	sub    $0x8,%rsp
   d:	48 8b 5f 10          	mov    0x10(%rdi),%rbx
  11:	48 85 db             	test   %rbx,%rbx
  14:	74 5a                	je     70 <_ZNSt8_Rb_treeIPvSt4pairIKS0_15enclave_elrangeESt10_Select1stIS4_ESt4lessIS0_ESaIS4_EE24_M_get_insert_unique_posERS2_+0x70>
  16:	4c 8b 06             	mov    (%rsi),%r8
  19:	eb 17                	jmp    32 <_ZNSt8_Rb_treeIPvSt4pairIKS0_15enclave_elrangeESt10_Select1stIS4_ESt4lessIS0_ESaIS4_EE24_M_get_insert_unique_posERS2_+0x32>
  1b:	0f 1f 44 00 00       	nopl   0x0(%rax,%rax,1)
  20:	48 8b 43 10          	mov    0x10(%rbx),%rax
  24:	41 b9 01 00 00 00    	mov    $0x1,%r9d
  2a:	48 85 c0             	test   %rax,%rax
  2d:	74 18                	je     47 <_ZNSt8_Rb_treeIPvSt4pairIKS0_15enclave_elrangeESt10_Select1stIS4_ESt4lessIS0_ESaIS4_EE24_M_get_insert_unique_posERS2_+0x47>
  2f:	48 89 c3             	mov    %rax,%rbx
  32:	48 8b 4b 20          	mov    0x20(%rbx),%rcx
  36:	4c 39 c1             	cmp    %r8,%rcx
  39:	77 e5                	ja     20 <_ZNSt8_Rb_treeIPvSt4pairIKS0_15enclave_elrangeESt10_Select1stIS4_ESt4lessIS0_ESaIS4_EE24_M_get_insert_unique_posERS2_+0x20>
  3b:	48 8b 43 18          	mov    0x18(%rbx),%rax
  3f:	45 31 c9             	xor    %r9d,%r9d
  42:	48 85 c0             	test   %rax,%rax
  45:	75 e8                	jne    2f <_ZNSt8_Rb_treeIPvSt4pairIKS0_15enclave_elrangeESt10_Select1stIS4_ESt4lessIS0_ESaIS4_EE24_M_get_insert_unique_posERS2_+0x2f>
  47:	48 89 de             	mov    %rbx,%rsi
  4a:	45 84 c9             	test   %r9b,%r9b
  4d:	75 25                	jne    74 <_ZNSt8_Rb_treeIPvSt4pairIKS0_15enclave_elrangeESt10_Select1stIS4_ESt4lessIS0_ESaIS4_EE24_M_get_insert_unique_posERS2_+0x74>
  4f:	31 d2                	xor    %edx,%edx
  51:	48 89 d8             	mov    %rbx,%rax
  54:	49 39 c8             	cmp    %rcx,%r8
  57:	48 0f 47 c2          	cmova  %rdx,%rax
  5b:	48 0f 47 d6          	cmova  %rsi,%rdx
  5f:	48 83 c4 08          	add    $0x8,%rsp
  63:	5b                   	pop    %rbx
  64:	5d                   	pop    %rbp
  65:	c3                   	ret    
  66:	66 2e 0f 1f 84 00 00 	cs nopw 0x0(%rax,%rax,1)
  6d:	00 00 00 
  70:	48 8d 5f 08          	lea    0x8(%rdi),%rbx
  74:	31 c0                	xor    %eax,%eax
  76:	48 89 da             	mov    %rbx,%rdx
  79:	48 39 5f 18          	cmp    %rbx,0x18(%rdi)
  7d:	74 e0                	je     5f <_ZNSt8_Rb_treeIPvSt4pairIKS0_15enclave_elrangeESt10_Select1stIS4_ESt4lessIS0_ESaIS4_EE24_M_get_insert_unique_posERS2_+0x5f>
  7f:	48 89 df             	mov    %rbx,%rdi
  82:	e8 00 00 00 00       	call   87 <_ZNSt8_Rb_treeIPvSt4pairIKS0_15enclave_elrangeESt10_Select1stIS4_ESt4lessIS0_ESaIS4_EE24_M_get_insert_unique_posERS2_+0x87>
  87:	48 89 de             	mov    %rbx,%rsi
  8a:	4c 8b 45 00          	mov    0x0(%rbp),%r8
  8e:	48 8b 48 20          	mov    0x20(%rax),%rcx
  92:	48 89 c3             	mov    %rax,%rbx
  95:	eb b8                	jmp    4f <_ZNSt8_Rb_treeIPvSt4pairIKS0_15enclave_elrangeESt10_Select1stIS4_ESt4lessIS0_ESaIS4_EE24_M_get_insert_unique_posERS2_+0x4f>

Disassembly of section .text._ZNSt8_Rb_treeIPvSt4pairIKS0_15enclave_elrangeESt10_Select1stIS4_ESt4lessIS0_ESaIS4_EE29_M_get_insert_hint_unique_posESt23_Rb_tree_const_iteratorIS4_ERS2_:

0000000000000000 <_ZNSt8_Rb_treeIPvSt4pairIKS0_15enclave_elrangeESt10_Select1stIS4_ESt4lessIS0_ESaIS4_EE29_M_get_insert_hint_unique_posESt23_Rb_tree_const_iteratorIS4_ERS2_>:
   0:	f3 0f 1e fa          	endbr64 
   4:	41 55                	push   %r13
   6:	48 8d 47 08          	lea    0x8(%rdi),%rax
   a:	41 54                	push   %r12
   c:	49 89 d4             	mov    %rdx,%r12
   f:	55                   	push   %rbp
  10:	48 89 fd             	mov    %rdi,%rbp
  13:	53                   	push   %rbx
  14:	48 83 ec 08          	sub    $0x8,%rsp
  18:	48 39 c6             	cmp    %rax,%rsi
  1b:	0f 84 8f 00 00 00    	je     b0 <_ZNSt8_Rb_treeIPvSt4pairIKS0_15enclave_elrangeESt10_Select1stIS4_ESt4lessIS0_ESaIS4_EE29_M_get_insert_hint_unique_posESt23_Rb_tree_const_iteratorIS4_ERS2_+0xb0>
  21:	4c 8b 2a             	mov    (%rdx),%r13
  24:	48 89 f3             	mov    %rsi,%rbx
  27:	4c 39 6e 20          	cmp    %r13,0x20(%rsi)
  2b:	76 43                	jbe    70 <_ZNSt8_Rb_treeIPvSt4pairIKS0_15enclave_elrangeESt10_Select1stIS4_ESt4lessIS0_ESaIS4_EE29_M_get_insert_hint_unique_posESt23_Rb_tree_const_iteratorIS4_ERS2_+0x70>
  2d:	4c 8b 47 18          	mov    0x18(%rdi),%r8
  31:	4c 89 c2             	mov    %r8,%rdx
  34:	49 39 f0             	cmp    %rsi,%r8
  37:	74 24                	je     5d <_ZNSt8_Rb_treeIPvSt4pairIKS0_15enclave_elrangeESt10_Select1stIS4_ESt4lessIS0_ESaIS4_EE29_M_get_insert_hint_unique_posESt23_Rb_tree_const_iteratorIS4_ERS2_+0x5d>
  39:	48 89 f7             	mov    %rsi,%rdi
  3c:	e8 00 00 00 00       	call   41 <_ZNSt8_Rb_treeIPvSt4pairIKS0_15enclave_elrangeESt10_Select1stIS4_ESt4lessIS0_ESaIS4_EE29_M_get_insert_hint_unique_posESt23_Rb_tree_const_iteratorIS4_ERS2_+0x41>
  41:	4c 39 68 20          	cmp    %r13,0x20(%rax)
  45:	73 7d                	jae    c4 <_ZNSt8_Rb_treeIPvSt4pairIKS0_15enclave_elrangeESt10_Select1stIS4_ESt4lessIS0_ESaIS4_EE29_M_get_insert_hint_unique_posESt23_Rb_tree_const_iteratorIS4_ERS2_+0xc4>
  47:	48 83 78 18 00       	cmpq   $0x0,0x18(%rax)
  4c:	41 b8 00 00 00 00    	mov    $0x0,%r8d
  52:	4c 0f 45 c3          	cmovne %rbx,%r8
  56:	48 0f 44 d8          	cmove  %rax,%rbx
  5a:	48 89 da             	mov    %rbx,%rdx
  5d:	48 83 c4 08          	add    $0x8,%rsp
  61:	4c 89 c0             	mov    %r8,%rax
  64:	5b                   	pop    %rbx
  65:	5d                   	pop    %rbp
  66:	41 5c                	pop    %r12
  68:	41 5d                	pop    %r13
  6a:	c3                   	ret    
  6b:	0f 1f 44 00 00       	nopl   0x0(%rax,%rax,1)
  70:	73 6e                	jae    e0 <_ZNSt8_Rb_treeIPvSt4pairIKS0_15enclave_elrangeESt10_Select1stIS4_ESt4lessIS0_ESaIS4_EE29_M_get_insert_hint_unique_posESt23_Rb_tree_const_iteratorIS4_ERS2_+0xe0>
  72:	48 8b 47 20          	mov    0x20(%rdi),%rax
  76:	45 31 c0             	xor    %r8d,%r8d
  79:	48 89 c2             	mov    %rax,%rdx
  7c:	48 39 f0             	cmp    %rsi,%rax
  7f:	74 dc                	je     5d <_ZNSt8_Rb_treeIPvSt4pairIKS0_15enclave_elrangeESt10_Select1stIS4_ESt4lessIS0_ESaIS4_EE29_M_get_insert_hint_unique_posESt23_Rb_tree_const_iteratorIS4_ERS2_+0x5d>
  81:	48 89 f7             	mov    %rsi,%rdi
  84:	e8 00 00 00 00       	call   89 <_ZNSt8_Rb_treeIPvSt4pairIKS0_15enclave_elrangeESt10_Select1stIS4_ESt4lessIS0_ESaIS4_EE29_M_get_insert_hint_unique_posESt23_Rb_tree_const_iteratorIS4_ERS2_+0x89>
  89:	4c 39 68 20          	cmp    %r13,0x20(%rax)
  8d:	76 35                	jbe    c4 <_ZNSt8_Rb_treeIPvSt4pairIKS0_15enclave_elrangeESt10_Select1stIS4_ESt4lessIS0_ESaIS4_EE29_M_get_insert_hint_unique_posESt23_Rb_tree_const_iteratorIS4_ERS2_+0xc4>
  8f:	48 83 7b 18 00       	cmpq   $0x0,0x18(%rbx)
  94:	41 b8 00 00 00 00    	mov    $0x0,%r8d
  9a:	48 89 da             	mov    %rbx,%rdx
  9d:	4c 0f 45 c0          	cmovne %rax,%r8
  a1:	48 0f 45 d0          	cmovne %rax,%rdx
  a5:	eb b6                	jmp    5d <_ZNSt8_Rb_treeIPvSt4pairIKS0_15enclave_elrangeESt10_Select1stIS4_ESt4lessIS0_ESaIS4_EE29_M_get_insert_hint_unique_posESt23_Rb_tree_const_iteratorIS4_ERS2_+0x5d>
  a7:	66 0f 1f 84 00 00 00 	nopw   0x0(%rax,%rax,1)
  ae:	00 00 
  b0:	48 83 7f 28 00       	cmpq   $0x0,0x28(%rdi)
  b5:	74 0d                	je     c4 <_ZNSt8_Rb_treeIPvSt4pairIKS0_15enclave_elrangeESt10_Select1stIS4_ESt4lessIS0_ESaIS4_EE29_M_get_insert_hint_unique_posESt23_Rb_tree_const_iteratorIS4_ERS2_+0xc4>
  b7:	48 8b 5f 20          	mov    0x20(%rdi),%rbx
  bb:	48 8b 43 20          	mov    0x20(%rbx),%rax
  bf:	48 39 02             	cmp    %rax,(%rdx)
  c2:	77 34                	ja     f8 <_ZNSt8_Rb_treeIPvSt4pairIKS0_15enclave_elrangeESt10_Select1stIS4_ESt4lessIS0_ESaIS4_EE29_M_get_insert_hint_unique_posESt23_Rb_tree_const_iteratorIS4_ERS2_+0xf8>
  c4:	48 83 c4 08          	add    $0x8,%rsp
  c8:	4c 89 e6             	mov    %r12,%rsi
  cb:	48 89 ef             	mov    %rbp,%rdi
  ce:	5b                   	pop    %rbx
  cf:	5d                   	pop    %rbp
  d0:	41 5c                	pop    %r12
  d2:	41 5d                	pop    %r13
  d4:	e9 00 00 00 00       	jmp    d9 <_ZNSt8_Rb_treeIPvSt4pairIKS0_15enclave_elrangeESt10_Select1stIS4_ESt4lessIS0_ESaIS4_EE29_M_get_insert_hint_unique_posESt23_Rb_tree_const_iteratorIS4_ERS2_+0xd9>
  d9:	0f 1f 80 00 00 00 00 	nopl   0x0(%rax)
  e0:	48 83 c4 08          	add    $0x8,%rsp
  e4:	49 89 f0             	mov    %rsi,%r8
  e7:	31 d2                	xor    %edx,%edx
  e9:	5b                   	pop    %rbx
  ea:	4c 89 c0             	mov    %r8,%rax
  ed:	5d                   	pop    %rbp
  ee:	41 5c                	pop    %r12
  f0:	41 5d                	pop    %r13
  f2:	c3                   	ret    
  f3:	0f 1f 44 00 00       	nopl   0x0(%rax,%rax,1)
  f8:	48 83 c4 08          	add    $0x8,%rsp
  fc:	45 31 c0             	xor    %r8d,%r8d
  ff:	48 89 da             	mov    %rbx,%rdx
 102:	4c 89 c0             	mov    %r8,%rax
 105:	5b                   	pop    %rbx
 106:	5d                   	pop    %rbp
 107:	41 5c                	pop    %r12
 109:	41 5d                	pop    %r13
 10b:	c3                   	ret    

Disassembly of section .text._ZNSt8_Rb_treeIPvSt4pairIKS0_15enclave_elrangeESt10_Select1stIS4_ESt4lessIS0_ESaIS4_EE22_M_emplace_hint_uniqueIJRKSt21piecewise_construct_tSt5tupleIJRS2_EESF_IJEEEEESt17_Rb_tree_iteratorIS4_ESt23_Rb_tree_const_iteratorIS4_EDpOT_:

0000000000000000 <_ZNSt8_Rb_treeIPvSt4pairIKS0_15enclave_elrangeESt10_Select1stIS4_ESt4lessIS0_ESaIS4_EE22_M_emplace_hint_uniqueIJRKSt21piecewise_construct_tSt5tupleIJRS2_EESF_IJEEEEESt17_Rb_tree_iteratorIS4_ESt23_Rb_tree_const_iteratorIS4_EDpOT_>:
   0:	f3 0f 1e fa          	endbr64 
   4:	41 55                	push   %r13
   6:	49 89 cd             	mov    %rcx,%r13
   9:	41 54                	push   %r12
   b:	49 89 f4             	mov    %rsi,%r12
   e:	55                   	push   %rbp
   f:	53                   	push   %rbx
  10:	48 89 fb             	mov    %rdi,%rbx
  13:	bf 40 00 00 00       	mov    $0x40,%edi
  18:	48 83 ec 08          	sub    $0x8,%rsp
  1c:	e8 00 00 00 00       	call   21 <_ZNSt8_Rb_treeIPvSt4pairIKS0_15enclave_elrangeESt10_Select1stIS4_ESt4lessIS0_ESaIS4_EE22_M_emplace_hint_uniqueIJRKSt21piecewise_construct_tSt5tupleIJRS2_EESF_IJEEEEESt17_Rb_tree_iteratorIS4_ESt23_Rb_tree_const_iteratorIS4_EDpOT_+0x21>
  21:	4c 89 e6             	mov    %r12,%rsi
  24:	48 89 df             	mov    %rbx,%rdi
  27:	48 89 c5             	mov    %rax,%rbp
  2a:	49 8b 45 00          	mov    0x0(%r13),%rax
  2e:	48 8d 55 20          	lea    0x20(%rbp),%rdx
  32:	48 c7 45 28 00 00 00 	movq   $0x0,0x28(%rbp)
  39:	00 
  3a:	48 8b 00             	mov    (%rax),%rax
  3d:	48 c7 45 30 00 00 00 	movq   $0x0,0x30(%rbp)
  44:	00 
  45:	48 c7 45 38 00 00 00 	movq   $0x0,0x38(%rbp)
  4c:	00 
  4d:	48 89 45 20          	mov    %rax,0x20(%rbp)
  51:	e8 00 00 00 00       	call   56 <_ZNSt8_Rb_treeIPvSt4pairIKS0_15enclave_elrangeESt10_Select1stIS4_ESt4lessIS0_ESaIS4_EE22_M_emplace_hint_uniqueIJRKSt21piecewise_construct_tSt5tupleIJRS2_EESF_IJEEEEESt17_Rb_tree_iteratorIS4_ESt23_Rb_tree_const_iteratorIS4_EDpOT_+0x56>
  56:	49 89 c4             	mov    %rax,%r12
  59:	48 85 d2             	test   %rdx,%rdx
  5c:	74 4a                	je     a8 <_ZNSt8_Rb_treeIPvSt4pairIKS0_15enclave_elrangeESt10_Select1stIS4_ESt4lessIS0_ESaIS4_EE22_M_emplace_hint_uniqueIJRKSt21piecewise_construct_tSt5tupleIJRS2_EESF_IJEEEEESt17_Rb_tree_iteratorIS4_ESt23_Rb_tree_const_iteratorIS4_EDpOT_+0xa8>
  5e:	48 8d 4b 08          	lea    0x8(%rbx),%rcx
  62:	bf 01 00 00 00       	mov    $0x1,%edi
  67:	48 85 c0             	test   %rax,%rax
  6a:	74 24                	je     90 <_ZNSt8_Rb_treeIPvSt4pairIKS0_15enclave_elrangeESt10_Select1stIS4_ESt4lessIS0_ESaIS4_EE22_M_emplace_hint_uniqueIJRKSt21piecewise_construct_tSt5tupleIJRS2_EESF_IJEEEEESt17_Rb_tree_iteratorIS4_ESt23_Rb_tree_const_iteratorIS4_EDpOT_+0x90>
  6c:	48 89 ee             	mov    %rbp,%rsi
  6f:	e8 00 00 00 00       	call   74 <_ZNSt8_Rb_treeIPvSt4pairIKS0_15enclave_elrangeESt10_Select1stIS4_ESt4lessIS0_ESaIS4_EE22_M_emplace_hint_uniqueIJRKSt21piecewise_construct_tSt5tupleIJRS2_EESF_IJEEEEESt17_Rb_tree_iteratorIS4_ESt23_Rb_tree_const_iteratorIS4_EDpOT_+0x74>
  74:	48 83 43 28 01       	addq   $0x1,0x28(%rbx)
  79:	48 83 c4 08          	add    $0x8,%rsp
  7d:	48 89 e8             	mov    %rbp,%rax
  80:	5b                   	pop    %rbx
  81:	5d                   	pop    %rbp
  82:	41 5c                	pop    %r12
  84:	41 5d                	pop    %r13
  86:	c3                   	ret    
  87:	66 0f 1f 84 00 00 00 	nopw   0x0(%rax,%rax,1)
  8e:	00 00 
  90:	48 39 ca             	cmp    %rcx,%rdx
  93:	74 d7                	je     6c <_ZNSt8_Rb_treeIPvSt4pairIKS0_15enclave_elrangeESt10_Select1stIS4_ESt4lessIS0_ESaIS4_EE22_M_emplace_hint_uniqueIJRKSt21piecewise_construct_tSt5tupleIJRS2_EESF_IJEEEEESt17_Rb_tree_iteratorIS4_ESt23_Rb_tree_const_iteratorIS4_EDpOT_+0x6c>
  95:	31 ff                	xor    %edi,%edi
  97:	48 8b 42 20          	mov    0x20(%rdx),%rax
  9b:	48 39 45 20          	cmp    %rax,0x20(%rbp)
  9f:	40 0f 92 c7          	setb   %dil
  a3:	eb c7                	jmp    6c <_ZNSt8_Rb_treeIPvSt4pairIKS0_15enclave_elrangeESt10_Select1stIS4_ESt4lessIS0_ESaIS4_EE22_M_emplace_hint_uniqueIJRKSt21piecewise_construct_tSt5tupleIJRS2_EESF_IJEEEEESt17_Rb_tree_iteratorIS4_ESt23_Rb_tree_const_iteratorIS4_EDpOT_+0x6c>
  a5:	0f 1f 00             	nopl   (%rax)
  a8:	48 89 ef             	mov    %rbp,%rdi
  ab:	e8 00 00 00 00       	call   b0 <_ZNSt8_Rb_treeIPvSt4pairIKS0_15enclave_elrangeESt10_Select1stIS4_ESt4lessIS0_ESaIS4_EE22_M_emplace_hint_uniqueIJRKSt21piecewise_construct_tSt5tupleIJRS2_EESF_IJEEEEESt17_Rb_tree_iteratorIS4_ESt23_Rb_tree_const_iteratorIS4_EDpOT_+0xb0>
  b0:	48 83 c4 08          	add    $0x8,%rsp
  b4:	4c 89 e0             	mov    %r12,%rax
  b7:	5b                   	pop    %rbx
  b8:	5d                   	pop    %rbp
  b9:	41 5c                	pop    %r12
  bb:	41 5d                	pop    %r13
  bd:	c3                   	ret    

Disassembly of section .text.unlikely._ZL29get_elrange_from_base_addressPvP15enclave_elrange:

0000000000000000 <_ZL29get_elrange_from_base_addressPvP15enclave_elrange.cold>:
   0:	48 8d 3d 00 00 00 00 	lea    0x0(%rip),%rdi        # 7 <_ZL29get_elrange_from_base_addressPvP15enclave_elrange.cold+0x7>
   7:	e8 00 00 00 00       	call   c <_ZL29get_elrange_from_base_addressPvP15enclave_elrange.cold+0xc>
   c:	48 89 ef             	mov    %rbp,%rdi
   f:	e8 00 00 00 00       	call   14 <.LC10+0x1>

Disassembly of section .text._ZL29get_elrange_from_base_addressPvP15enclave_elrange:

0000000000000000 <_ZL29get_elrange_from_base_addressPvP15enclave_elrange>:
   0:	41 57                	push   %r15
   2:	41 56                	push   %r14
   4:	41 55                	push   %r13
   6:	41 54                	push   %r12
   8:	55                   	push   %rbp
   9:	53                   	push   %rbx
   a:	48 89 f3             	mov    %rsi,%rbx
   d:	48 83 ec 38          	sub    $0x38,%rsp
  11:	48 89 7c 24 08       	mov    %rdi,0x8(%rsp)
  16:	48 8d 3d 00 00 00 00 	lea    0x0(%rip),%rdi        # 1d <_ZL29get_elrange_from_base_addressPvP15enclave_elrange+0x1d>
  1d:	64 48 8b 04 25 28 00 	mov    %fs:0x28,%rax
  24:	00 00 
  26:	48 89 44 24 28       	mov    %rax,0x28(%rsp)
  2b:	31 c0                	xor    %eax,%eax
  2d:	e8 00 00 00 00       	call   32 <_ZL29get_elrange_from_base_addressPvP15enclave_elrange+0x32>
  32:	48 8b 0d 00 00 00 00 	mov    0x0(%rip),%rcx        # 39 <_ZL29get_elrange_from_base_addressPvP15enclave_elrange+0x39>
  39:	48 85 c9             	test   %rcx,%rcx
  3c:	0f 84 9e 01 00 00    	je     1e0 <_ZL29get_elrange_from_base_addressPvP15enclave_elrange+0x1e0>
  42:	48 8d 2d 00 00 00 00 	lea    0x0(%rip),%rbp        # 49 <_ZL29get_elrange_from_base_addressPvP15enclave_elrange+0x49>
  49:	48 8b 54 24 08       	mov    0x8(%rsp),%rdx
  4e:	48 89 c8             	mov    %rcx,%rax
  51:	48 89 ee             	mov    %rbp,%rsi
  54:	eb 16                	jmp    6c <_ZL29get_elrange_from_base_addressPvP15enclave_elrange+0x6c>
  56:	66 2e 0f 1f 84 00 00 	cs nopw 0x0(%rax,%rax,1)
  5d:	00 00 00 
  60:	48 89 c6             	mov    %rax,%rsi
  63:	48 8b 40 10          	mov    0x10(%rax),%rax
  67:	48 85 c0             	test   %rax,%rax
  6a:	74 0f                	je     7b <_ZL29get_elrange_from_base_addressPvP15enclave_elrange+0x7b>
  6c:	48 39 50 20          	cmp    %rdx,0x20(%rax)
  70:	73 ee                	jae    60 <_ZL29get_elrange_from_base_addressPvP15enclave_elrange+0x60>
  72:	48 8b 40 18          	mov    0x18(%rax),%rax
  76:	48 85 c0             	test   %rax,%rax
  79:	75 f1                	jne    6c <_ZL29get_elrange_from_base_addressPvP15enclave_elrange+0x6c>
  7b:	48 39 ee             	cmp    %rbp,%rsi
  7e:	0f 84 5c 01 00 00    	je     1e0 <_ZL29get_elrange_from_base_addressPvP15enclave_elrange+0x1e0>
  84:	48 39 56 20          	cmp    %rdx,0x20(%rsi)
  88:	0f 87 52 01 00 00    	ja     1e0 <_ZL29get_elrange_from_base_addressPvP15enclave_elrange+0x1e0>
  8e:	48 89 c8             	mov    %rcx,%rax
  91:	48 8d 35 00 00 00 00 	lea    0x0(%rip),%rsi        # 98 <_ZL29get_elrange_from_base_addressPvP15enclave_elrange+0x98>
  98:	eb 12                	jmp    ac <_ZL29get_elrange_from_base_addressPvP15enclave_elrange+0xac>
  9a:	66 0f 1f 44 00 00    	nopw   0x0(%rax,%rax,1)
  a0:	48 89 c6             	mov    %rax,%rsi
  a3:	48 8b 40 10          	mov    0x10(%rax),%rax
  a7:	48 85 c0             	test   %rax,%rax
  aa:	74 0f                	je     bb <_ZL29get_elrange_from_base_addressPvP15enclave_elrange+0xbb>
  ac:	48 39 50 20          	cmp    %rdx,0x20(%rax)
  b0:	73 ee                	jae    a0 <_ZL29get_elrange_from_base_addressPvP15enclave_elrange+0xa0>
  b2:	48 8b 40 18          	mov    0x18(%rax),%rax
  b6:	48 85 c0             	test   %rax,%rax
  b9:	75 f1                	jne    ac <_ZL29get_elrange_from_base_addressPvP15enclave_elrange+0xac>
  bb:	48 39 ee             	cmp    %rbp,%rsi
  be:	74 0a                	je     ca <_ZL29get_elrange_from_base_addressPvP15enclave_elrange+0xca>
  c0:	48 39 56 20          	cmp    %rdx,0x20(%rsi)
  c4:	0f 86 4e 01 00 00    	jbe    218 <_ZL29get_elrange_from_base_addressPvP15enclave_elrange+0x218>
  ca:	4c 8b 25 00 00 00 00 	mov    0x0(%rip),%r12        # d1 <_ZL29get_elrange_from_base_addressPvP15enclave_elrange+0xd1>
  d1:	4c 8d 74 24 1f       	lea    0x1f(%rsp),%r14
  d6:	4c 8d 6c 24 20       	lea    0x20(%rsp),%r13
  db:	4c 8d 7c 24 08       	lea    0x8(%rsp),%r15
  e0:	4d 89 f0             	mov    %r14,%r8
  e3:	4c 89 e9             	mov    %r13,%rcx
  e6:	4c 89 e2             	mov    %r12,%rdx
  e9:	48 8d 3d 00 00 00 00 	lea    0x0(%rip),%rdi        # f0 <_ZL29get_elrange_from_base_addressPvP15enclave_elrange+0xf0>
  f0:	4c 89 7c 24 20       	mov    %r15,0x20(%rsp)
  f5:	e8 00 00 00 00       	call   fa <_ZL29get_elrange_from_base_addressPvP15enclave_elrange+0xfa>
  fa:	48 8b 0d 00 00 00 00 	mov    0x0(%rip),%rcx        # 101 <_ZL29get_elrange_from_base_addressPvP15enclave_elrange+0x101>
 101:	48 8b 40 38          	mov    0x38(%rax),%rax
 105:	48 89 43 10          	mov    %rax,0x10(%rbx)
 109:	48 85 c9             	test   %rcx,%rcx
 10c:	0f 84 64 01 00 00    	je     276 <_ZL29get_elrange_from_base_addressPvP15enclave_elrange+0x276>
 112:	48 8b 54 24 08       	mov    0x8(%rsp),%rdx
 117:	48 89 c8             	mov    %rcx,%rax
 11a:	48 8d 35 00 00 00 00 	lea    0x0(%rip),%rsi        # 121 <_ZL29get_elrange_from_base_addressPvP15enclave_elrange+0x121>
 121:	eb 11                	jmp    134 <_ZL29get_elrange_from_base_addressPvP15enclave_elrange+0x134>
 123:	0f 1f 44 00 00       	nopl   0x0(%rax,%rax,1)
 128:	48 89 c6             	mov    %rax,%rsi
 12b:	48 8b 40 10          	mov    0x10(%rax),%rax
 12f:	48 85 c0             	test   %rax,%rax
 132:	74 0f                	je     143 <_ZL29get_elrange_from_base_addressPvP15enclave_elrange+0x143>
 134:	48 39 50 20          	cmp    %rdx,0x20(%rax)
 138:	73 ee                	jae    128 <_ZL29get_elrange_from_base_addressPvP15enclave_elrange+0x128>
 13a:	48 8b 40 18          	mov    0x18(%rax),%rax
 13e:	48 85 c0             	test   %rax,%rax
 141:	75 f1                	jne    134 <_ZL29get_elrange_from_base_addressPvP15enclave_elrange+0x134>
 143:	48 39 ee             	cmp    %rbp,%rsi
 146:	0f 84 dc 00 00 00    	je     228 <_ZL29get_elrange_from_base_addressPvP15enclave_elrange+0x228>
 14c:	48 39 56 20          	cmp    %rdx,0x20(%rsi)
 150:	0f 87 d2 00 00 00    	ja     228 <_ZL29get_elrange_from_base_addressPvP15enclave_elrange+0x228>
 156:	48 8b 46 30          	mov    0x30(%rsi),%rax
 15a:	48 89 43 08          	mov    %rax,0x8(%rbx)
 15e:	48 8d 35 00 00 00 00 	lea    0x0(%rip),%rsi        # 165 <_ZL29get_elrange_from_base_addressPvP15enclave_elrange+0x165>
 165:	eb 15                	jmp    17c <_ZL29get_elrange_from_base_addressPvP15enclave_elrange+0x17c>
 167:	66 0f 1f 84 00 00 00 	nopw   0x0(%rax,%rax,1)
 16e:	00 00 
 170:	48 89 ce             	mov    %rcx,%rsi
 173:	48 8b 49 10          	mov    0x10(%rcx),%rcx
 177:	48 85 c9             	test   %rcx,%rcx
 17a:	74 0f                	je     18b <_ZL29get_elrange_from_base_addressPvP15enclave_elrange+0x18b>
 17c:	48 39 51 20          	cmp    %rdx,0x20(%rcx)
 180:	73 ee                	jae    170 <_ZL29get_elrange_from_base_addressPvP15enclave_elrange+0x170>
 182:	48 8b 49 18          	mov    0x18(%rcx),%rcx
 186:	48 85 c9             	test   %rcx,%rcx
 189:	75 f1                	jne    17c <_ZL29get_elrange_from_base_addressPvP15enclave_elrange+0x17c>
 18b:	48 39 ee             	cmp    %rbp,%rsi
 18e:	74 06                	je     196 <_ZL29get_elrange_from_base_addressPvP15enclave_elrange+0x196>
 190:	48 39 56 20          	cmp    %rdx,0x20(%rsi)
 194:	76 33                	jbe    1c9 <_ZL29get_elrange_from_base_addressPvP15enclave_elrange+0x1c9>
 196:	4c 8b 25 00 00 00 00 	mov    0x0(%rip),%r12        # 19d <_ZL29get_elrange_from_base_addressPvP15enclave_elrange+0x19d>
 19d:	4c 8d 7c 24 08       	lea    0x8(%rsp),%r15
 1a2:	4c 8d 74 24 1f       	lea    0x1f(%rsp),%r14
 1a7:	4c 8d 6c 24 20       	lea    0x20(%rsp),%r13
 1ac:	4d 89 f0             	mov    %r14,%r8
 1af:	4c 89 e9             	mov    %r13,%rcx
 1b2:	4c 89 e2             	mov    %r12,%rdx
 1b5:	4c 89 7c 24 20       	mov    %r15,0x20(%rsp)
 1ba:	48 8d 3d 00 00 00 00 	lea    0x0(%rip),%rdi        # 1c1 <_ZL29get_elrange_from_base_addressPvP15enclave_elrange+0x1c1>
 1c1:	e8 00 00 00 00       	call   1c6 <_ZL29get_elrange_from_base_addressPvP15enclave_elrange+0x1c6>
 1c6:	48 89 c6             	mov    %rax,%rsi
 1c9:	48 8b 46 28          	mov    0x28(%rsi),%rax
 1cd:	41 bc 01 00 00 00    	mov    $0x1,%r12d
 1d3:	48 89 03             	mov    %rax,(%rbx)
 1d6:	eb 0b                	jmp    1e3 <_ZL29get_elrange_from_base_addressPvP15enclave_elrange+0x1e3>
 1d8:	0f 1f 84 00 00 00 00 	nopl   0x0(%rax,%rax,1)
 1df:	00 
 1e0:	45 31 e4             	xor    %r12d,%r12d
 1e3:	48 8d 3d 00 00 00 00 	lea    0x0(%rip),%rdi        # 1ea <_ZL29get_elrange_from_base_addressPvP15enclave_elrange+0x1ea>
 1ea:	e8 00 00 00 00       	call   1ef <_ZL29get_elrange_from_base_addressPvP15enclave_elrange+0x1ef>
 1ef:	48 8b 44 24 28       	mov    0x28(%rsp),%rax
 1f4:	64 48 33 04 25 28 00 	xor    %fs:0x28,%rax
 1fb:	00 00 
 1fd:	0f 85 88 00 00 00    	jne    28b <_ZL29get_elrange_from_base_addressPvP15enclave_elrange+0x28b>
 203:	48 83 c4 38          	add    $0x38,%rsp
 207:	44 89 e0             	mov    %r12d,%eax
 20a:	5b                   	pop    %rbx
 20b:	5d                   	pop    %rbp
 20c:	41 5c                	pop    %r12
 20e:	41 5d                	pop    %r13
 210:	41 5e                	pop    %r14
 212:	41 5f                	pop    %r15
 214:	c3                   	ret    
 215:	0f 1f 00             	nopl   (%rax)
 218:	48 8b 46 38          	mov    0x38(%rsi),%rax
 21c:	48 89 43 10          	mov    %rax,0x10(%rbx)
 220:	e9 f2 fe ff ff       	jmp    117 <_ZL29get_elrange_from_base_addressPvP15enclave_elrange+0x117>
 225:	0f 1f 00             	nopl   (%rax)
 228:	4c 8b 25 00 00 00 00 	mov    0x0(%rip),%r12        # 22f <_ZL29get_elrange_from_base_addressPvP15enclave_elrange+0x22f>
 22f:	4c 8d 7c 24 08       	lea    0x8(%rsp),%r15
 234:	4c 8d 74 24 1f       	lea    0x1f(%rsp),%r14
 239:	4c 8d 6c 24 20       	lea    0x20(%rsp),%r13
 23e:	4d 89 f0             	mov    %r14,%r8
 241:	4c 89 e9             	mov    %r13,%rcx
 244:	4c 89 e2             	mov    %r12,%rdx
 247:	4c 89 7c 24 20       	mov    %r15,0x20(%rsp)
 24c:	48 8d 3d 00 00 00 00 	lea    0x0(%rip),%rdi        # 253 <_ZL29get_elrange_from_base_addressPvP15enclave_elrange+0x253>
 253:	e8 00 00 00 00       	call   258 <_ZL29get_elrange_from_base_addressPvP15enclave_elrange+0x258>
 258:	48 8b 0d 00 00 00 00 	mov    0x0(%rip),%rcx        # 25f <_ZL29get_elrange_from_base_addressPvP15enclave_elrange+0x25f>
 25f:	48 8b 40 30          	mov    0x30(%rax),%rax
 263:	48 89 43 08          	mov    %rax,0x8(%rbx)
 267:	48 85 c9             	test   %rcx,%rcx
 26a:	74 13                	je     27f <_ZL29get_elrange_from_base_addressPvP15enclave_elrange+0x27f>
 26c:	48 8b 54 24 08       	mov    0x8(%rsp),%rdx
 271:	e9 e8 fe ff ff       	jmp    15e <_ZL29get_elrange_from_base_addressPvP15enclave_elrange+0x15e>
 276:	48 8d 35 00 00 00 00 	lea    0x0(%rip),%rsi        # 27d <_ZL29get_elrange_from_base_addressPvP15enclave_elrange+0x27d>
 27d:	eb bf                	jmp    23e <_ZL29get_elrange_from_base_addressPvP15enclave_elrange+0x23e>
 27f:	48 8d 35 00 00 00 00 	lea    0x0(%rip),%rsi        # 286 <_ZL29get_elrange_from_base_addressPvP15enclave_elrange+0x286>
 286:	e9 21 ff ff ff       	jmp    1ac <_ZL29get_elrange_from_base_addressPvP15enclave_elrange+0x1ac>
 28b:	e8 00 00 00 00       	call   290 <_ZL29get_elrange_from_base_addressPvP15enclave_elrange+0x290>
 290:	f3 0f 1e fa          	endbr64 
 294:	48 89 c5             	mov    %rax,%rbp
 297:	e9 00 00 00 00       	jmp    29c <.LC11+0x276>

Disassembly of section .text._Z22get_offset_for_addressm:

0000000000000000 <_Z22get_offset_for_addressm>:
   0:	f3 0f 1e fa          	endbr64 
   4:	55                   	push   %rbp
   5:	53                   	push   %rbx
   6:	48 89 fb             	mov    %rdi,%rbx
   9:	48 83 ec 28          	sub    $0x28,%rsp
   d:	64 48 8b 04 25 28 00 	mov    %fs:0x28,%rax
  14:	00 00 
  16:	48 89 44 24 18       	mov    %rax,0x18(%rsp)
  1b:	31 c0                	xor    %eax,%eax
  1d:	e8 00 00 00 00       	call   22 <_Z22get_offset_for_addressm+0x22>
  22:	48 89 e6             	mov    %rsp,%rsi
  25:	48 89 c7             	mov    %rax,%rdi
  28:	48 89 c5             	mov    %rax,%rbp
  2b:	e8 00 00 00 00       	call   30 <_Z22get_offset_for_addressm+0x30>
  30:	41 89 c0             	mov    %eax,%r8d
  33:	48 89 d8             	mov    %rbx,%rax
  36:	48 29 e8             	sub    %rbp,%rax
  39:	45 84 c0             	test   %r8b,%r8b
  3c:	74 08                	je     46 <_Z22get_offset_for_addressm+0x46>
  3e:	48 89 d8             	mov    %rbx,%rax
  41:	48 2b 44 24 08       	sub    0x8(%rsp),%rax
  46:	48 8b 54 24 18       	mov    0x18(%rsp),%rdx
  4b:	64 48 33 14 25 28 00 	xor    %fs:0x28,%rdx
  52:	00 00 
  54:	75 07                	jne    5d <_Z22get_offset_for_addressm+0x5d>
  56:	48 83 c4 28          	add    $0x28,%rsp
  5a:	5b                   	pop    %rbx
  5b:	5d                   	pop    %rbp
  5c:	c3                   	ret    
  5d:	e8 00 00 00 00       	call   62 <.LC11+0x3c>

Disassembly of section .text._ZL6emodpriPvmm:

0000000000000000 <_ZL6emodpriPvmm>:
   0:	f3 0f 1e fa          	endbr64 
   4:	41 55                	push   %r13
   6:	41 54                	push   %r12
   8:	55                   	push   %rbp
   9:	53                   	push   %rbx
   a:	48 83 ec 38          	sub    $0x38,%rsp
   e:	64 48 8b 04 25 28 00 	mov    %fs:0x28,%rax
  15:	00 00 
  17:	48 89 44 24 28       	mov    %rax,0x28(%rsp)
  1c:	31 c0                	xor    %eax,%eax
  1e:	b8 16 00 00 00       	mov    $0x16,%eax
  23:	48 85 d2             	test   %rdx,%rdx
  26:	0f 84 9c 00 00 00    	je     c8 <_ZL6emodpriPvmm+0xc8>
  2c:	66 0f ef c0          	pxor   %xmm0,%xmm0
  30:	89 fd                	mov    %edi,%ebp
  32:	48 89 f7             	mov    %rsi,%rdi
  35:	48 89 d3             	mov    %rdx,%rbx
  38:	0f 29 44 24 10       	movaps %xmm0,0x10(%rsp)
  3d:	49 89 e5             	mov    %rsp,%r13
  40:	41 bc 05 a4 28 c0    	mov    $0xc028a405,%r12d
  46:	48 c7 44 24 20 00 00 	movq   $0x0,0x20(%rsp)
  4d:	00 00 
  4f:	48 89 4c 24 10       	mov    %rcx,0x10(%rsp)
  54:	0f 29 04 24          	movaps %xmm0,(%rsp)
  58:	e8 00 00 00 00       	call   5d <_ZL6emodpriPvmm+0x5d>
  5d:	48 89 5c 24 08       	mov    %rbx,0x8(%rsp)
  62:	48 89 04 24          	mov    %rax,(%rsp)
  66:	66 2e 0f 1f 84 00 00 	cs nopw 0x0(%rax,%rax,1)
  6d:	00 00 00 
  70:	4c 89 ea             	mov    %r13,%rdx
  73:	4c 89 e6             	mov    %r12,%rsi
  76:	89 ef                	mov    %ebp,%edi
  78:	31 c0                	xor    %eax,%eax
  7a:	e8 00 00 00 00       	call   7f <_ZL6emodpriPvmm+0x7f>
  7f:	48 8b 5c 24 20       	mov    0x20(%rsp),%rbx
  84:	85 c0                	test   %eax,%eax
  86:	74 18                	je     a0 <_ZL6emodpriPvmm+0xa0>
  88:	48 85 db             	test   %rbx,%rbx
  8b:	75 13                	jne    a0 <_ZL6emodpriPvmm+0xa0>
  8d:	e8 00 00 00 00       	call   92 <_ZL6emodpriPvmm+0x92>
  92:	8b 00                	mov    (%rax),%eax
  94:	83 f8 10             	cmp    $0x10,%eax
  97:	74 07                	je     a0 <_ZL6emodpriPvmm+0xa0>
  99:	83 f8 0b             	cmp    $0xb,%eax
  9c:	75 2a                	jne    c8 <_ZL6emodpriPvmm+0xc8>
  9e:	66 90                	xchg   %ax,%ax
  a0:	48 8b 44 24 08       	mov    0x8(%rsp),%rax
  a5:	48 01 1c 24          	add    %rbx,(%rsp)
  a9:	48 c7 44 24 18 00 00 	movq   $0x0,0x18(%rsp)
  b0:	00 00 
  b2:	48 c7 44 24 20 00 00 	movq   $0x0,0x20(%rsp)
  b9:	00 00 
  bb:	48 29 d8             	sub    %rbx,%rax
  be:	48 89 44 24 08       	mov    %rax,0x8(%rsp)
  c3:	48 85 c0             	test   %rax,%rax
  c6:	75 a8                	jne    70 <_ZL6emodpriPvmm+0x70>
  c8:	48 8b 4c 24 28       	mov    0x28(%rsp),%rcx
  cd:	64 48 33 0c 25 28 00 	xor    %fs:0x28,%rcx
  d4:	00 00 
  d6:	75 0b                	jne    e3 <_ZL6emodpriPvmm+0xe3>
  d8:	48 83 c4 38          	add    $0x38,%rsp
  dc:	5b                   	pop    %rbx
  dd:	5d                   	pop    %rbp
  de:	41 5c                	pop    %r12
  e0:	41 5d                	pop    %r13
  e2:	c3                   	ret    
  e3:	e8 00 00 00 00       	call   e8 <.LC11+0xc2>

Disassembly of section .text._ZL5emodtiPvmm.part.0:

0000000000000000 <_ZL5emodtiPvmm.part.0>:
   0:	41 56                	push   %r14
   2:	66 0f ef c0          	pxor   %xmm0,%xmm0
   6:	41 55                	push   %r13
   8:	41 bd 06 a4 28 c0    	mov    $0xc028a406,%r13d
   e:	41 54                	push   %r12
  10:	41 89 fc             	mov    %edi,%r12d
  13:	48 89 f7             	mov    %rsi,%rdi
  16:	55                   	push   %rbp
  17:	48 89 d5             	mov    %rdx,%rbp
  1a:	53                   	push   %rbx
  1b:	48 83 ec 30          	sub    $0x30,%rsp
  1f:	64 48 8b 04 25 28 00 	mov    %fs:0x28,%rax
  26:	00 00 
  28:	48 89 44 24 28       	mov    %rax,0x28(%rsp)
  2d:	31 c0                	xor    %eax,%eax
  2f:	0f 29 44 24 10       	movaps %xmm0,0x10(%rsp)
  34:	49 89 e6             	mov    %rsp,%r14
  37:	48 c7 44 24 20 00 00 	movq   $0x0,0x20(%rsp)
  3e:	00 00 
  40:	48 89 4c 24 10       	mov    %rcx,0x10(%rsp)
  45:	0f 29 04 24          	movaps %xmm0,(%rsp)
  49:	e8 00 00 00 00       	call   4e <_ZL5emodtiPvmm.part.0+0x4e>
  4e:	48 89 6c 24 08       	mov    %rbp,0x8(%rsp)
  53:	48 89 04 24          	mov    %rax,(%rsp)
  57:	66 0f 1f 84 00 00 00 	nopw   0x0(%rax,%rax,1)
  5e:	00 00 
  60:	4c 89 f2             	mov    %r14,%rdx
  63:	4c 89 ee             	mov    %r13,%rsi
  66:	44 89 e7             	mov    %r12d,%edi
  69:	31 c0                	xor    %eax,%eax
  6b:	e8 00 00 00 00       	call   70 <_ZL5emodtiPvmm.part.0+0x70>
  70:	48 8b 5c 24 20       	mov    0x20(%rsp),%rbx
  75:	85 c0                	test   %eax,%eax
  77:	74 17                	je     90 <_ZL5emodtiPvmm.part.0+0x90>
  79:	48 85 db             	test   %rbx,%rbx
  7c:	75 12                	jne    90 <_ZL5emodtiPvmm.part.0+0x90>
  7e:	e8 00 00 00 00       	call   83 <_ZL5emodtiPvmm.part.0+0x83>
  83:	8b 00                	mov    (%rax),%eax
  85:	83 f8 0b             	cmp    $0xb,%eax
  88:	74 06                	je     90 <_ZL5emodtiPvmm.part.0+0x90>
  8a:	83 f8 10             	cmp    $0x10,%eax
  8d:	75 1e                	jne    ad <_ZL5emodtiPvmm.part.0+0xad>
  8f:	90                   	nop
  90:	48 01 1c 24          	add    %rbx,(%rsp)
  94:	48 c7 44 24 18 00 00 	movq   $0x0,0x18(%rsp)
  9b:	00 00 
  9d:	48 c7 44 24 20 00 00 	movq   $0x0,0x20(%rsp)
  a4:	00 00 
  a6:	48 29 dd             	sub    %rbx,%rbp
  a9:	75 b5                	jne    60 <_ZL5emodtiPvmm.part.0+0x60>
  ab:	31 c0                	xor    %eax,%eax
  ad:	48 8b 4c 24 28       	mov    0x28(%rsp),%rcx
  b2:	64 48 33 0c 25 28 00 	xor    %fs:0x28,%rcx
  b9:	00 00 
  bb:	75 0d                	jne    ca <_ZL5emodtiPvmm.part.0+0xca>
  bd:	48 83 c4 30          	add    $0x30,%rsp
  c1:	5b                   	pop    %rbx
  c2:	5d                   	pop    %rbp
  c3:	41 5c                	pop    %r12
  c5:	41 5d                	pop    %r13
  c7:	41 5e                	pop    %r14
  c9:	c3                   	ret    
  ca:	e8 00 00 00 00       	call   cf <.LC11+0xa9>

Disassembly of section .text._ZL5mktcsiPvm:

0000000000000000 <_ZL5mktcsiPvm>:
   0:	f3 0f 1e fa          	endbr64 
   4:	48 85 d2             	test   %rdx,%rdx
   7:	74 0f                	je     18 <_ZL5mktcsiPvm+0x18>
   9:	b9 01 00 00 00       	mov    $0x1,%ecx
   e:	e9 00 00 00 00       	jmp    13 <_ZL5mktcsiPvm+0x13>
  13:	0f 1f 44 00 00       	nopl   0x0(%rax,%rax,1)
  18:	b8 16 00 00 00       	mov    $0x16,%eax
  1d:	c3                   	ret    

Disassembly of section .text._ZL4trimiPvm:

0000000000000000 <_ZL4trimiPvm>:
   0:	f3 0f 1e fa          	endbr64 
   4:	48 85 d2             	test   %rdx,%rdx
   7:	74 0f                	je     18 <_ZL4trimiPvm+0x18>
   9:	b9 04 00 00 00       	mov    $0x4,%ecx
   e:	e9 00 00 00 00       	jmp    13 <_ZL4trimiPvm+0x13>
  13:	0f 1f 44 00 00       	nopl   0x0(%rax,%rax,1)
  18:	b8 16 00 00 00       	mov    $0x16,%eax
  1d:	c3                   	ret    

Disassembly of section .text._ZL11trim_acceptiPvm:

0000000000000000 <_ZL11trim_acceptiPvm>:
   0:	f3 0f 1e fa          	endbr64 
   4:	41 55                	push   %r13
   6:	66 0f ef c0          	pxor   %xmm0,%xmm0
   a:	41 54                	push   %r12
   c:	41 bc 07 a4 18 c0    	mov    $0xc018a407,%r12d
  12:	55                   	push   %rbp
  13:	89 fd                	mov    %edi,%ebp
  15:	48 89 f7             	mov    %rsi,%rdi
  18:	53                   	push   %rbx
  19:	48 89 d3             	mov    %rdx,%rbx
  1c:	48 83 ec 28          	sub    $0x28,%rsp
  20:	64 48 8b 04 25 28 00 	mov    %fs:0x28,%rax
  27:	00 00 
  29:	48 89 44 24 18       	mov    %rax,0x18(%rsp)
  2e:	31 c0                	xor    %eax,%eax
  30:	0f 29 04 24          	movaps %xmm0,(%rsp)
  34:	49 89 e5             	mov    %rsp,%r13
  37:	48 c7 44 24 10 00 00 	movq   $0x0,0x10(%rsp)
  3e:	00 00 
  40:	e8 00 00 00 00       	call   45 <_ZL11trim_acceptiPvm+0x45>
  45:	48 89 5c 24 08       	mov    %rbx,0x8(%rsp)
  4a:	48 89 04 24          	mov    %rax,(%rsp)
  4e:	66 90                	xchg   %ax,%ax
  50:	4c 89 ea             	mov    %r13,%rdx
  53:	4c 89 e6             	mov    %r12,%rsi
  56:	89 ef                	mov    %ebp,%edi
  58:	31 c0                	xor    %eax,%eax
  5a:	e8 00 00 00 00       	call   5f <_ZL11trim_acceptiPvm+0x5f>
  5f:	48 8b 5c 24 10       	mov    0x10(%rsp),%rbx
  64:	85 c0                	test   %eax,%eax
  66:	74 18                	je     80 <_ZL11trim_acceptiPvm+0x80>
  68:	48 85 db             	test   %rbx,%rbx
  6b:	75 13                	jne    80 <_ZL11trim_acceptiPvm+0x80>
  6d:	e8 00 00 00 00       	call   72 <_ZL11trim_acceptiPvm+0x72>
  72:	8b 00                	mov    (%rax),%eax
  74:	83 f8 10             	cmp    $0x10,%eax
  77:	74 07                	je     80 <_ZL11trim_acceptiPvm+0x80>
  79:	83 f8 0b             	cmp    $0xb,%eax
  7c:	75 21                	jne    9f <_ZL11trim_acceptiPvm+0x9f>
  7e:	66 90                	xchg   %ax,%ax
  80:	48 8b 44 24 08       	mov    0x8(%rsp),%rax
  85:	48 01 1c 24          	add    %rbx,(%rsp)
  89:	48 c7 44 24 10 00 00 	movq   $0x0,0x10(%rsp)
  90:	00 00 
  92:	48 29 d8             	sub    %rbx,%rax
  95:	48 89 44 24 08       	mov    %rax,0x8(%rsp)
  9a:	48 85 c0             	test   %rax,%rax
  9d:	75 b1                	jne    50 <_ZL11trim_acceptiPvm+0x50>
  9f:	48 8b 4c 24 18       	mov    0x18(%rsp),%rcx
  a4:	64 48 33 0c 25 28 00 	xor    %fs:0x28,%rcx
  ab:	00 00 
  ad:	75 0b                	jne    ba <_ZL11trim_acceptiPvm+0xba>
  af:	48 83 c4 28          	add    $0x28,%rsp
  b3:	5b                   	pop    %rbx
  b4:	5d                   	pop    %rbp
  b5:	41 5c                	pop    %r12
  b7:	41 5d                	pop    %r13
  b9:	c3                   	ret    
  ba:	e8 00 00 00 00       	call   bf <.LC11+0x99>

Disassembly of section .text._ZNSt8_Rb_treeIPvSt4pairIKS0_mESt10_Select1stIS3_ESt4lessIS0_ESaIS3_EE24_M_get_insert_unique_posERS2_:

0000000000000000 <_ZNSt8_Rb_treeIPvSt4pairIKS0_mESt10_Select1stIS3_ESt4lessIS0_ESaIS3_EE24_M_get_insert_unique_posERS2_>:
   0:	f3 0f 1e fa          	endbr64 
   4:	55                   	push   %rbp
   5:	48 89 f5             	mov    %rsi,%rbp
   8:	53                   	push   %rbx
   9:	48 83 ec 08          	sub    $0x8,%rsp
   d:	48 8b 5f 10          	mov    0x10(%rdi),%rbx
  11:	48 85 db             	test   %rbx,%rbx
  14:	74 5a                	je     70 <_ZNSt8_Rb_treeIPvSt4pairIKS0_mESt10_Select1stIS3_ESt4lessIS0_ESaIS3_EE24_M_get_insert_unique_posERS2_+0x70>
  16:	4c 8b 06             	mov    (%rsi),%r8
  19:	eb 17                	jmp    32 <_ZNSt8_Rb_treeIPvSt4pairIKS0_mESt10_Select1stIS3_ESt4lessIS0_ESaIS3_EE24_M_get_insert_unique_posERS2_+0x32>
  1b:	0f 1f 44 00 00       	nopl   0x0(%rax,%rax,1)
  20:	48 8b 43 10          	mov    0x10(%rbx),%rax
  24:	41 b9 01 00 00 00    	mov    $0x1,%r9d
  2a:	48 85 c0             	test   %rax,%rax
  2d:	74 18                	je     47 <_ZNSt8_Rb_treeIPvSt4pairIKS0_mESt10_Select1stIS3_ESt4lessIS0_ESaIS3_EE24_M_get_insert_unique_posERS2_+0x47>
  2f:	48 89 c3             	mov    %rax,%rbx
  32:	48 8b 4b 20          	mov    0x20(%rbx),%rcx
  36:	4c 39 c1             	cmp    %r8,%rcx
  39:	77 e5                	ja     20 <_ZNSt8_Rb_treeIPvSt4pairIKS0_mESt10_Select1stIS3_ESt4lessIS0_ESaIS3_EE24_M_get_insert_unique_posERS2_+0x20>
  3b:	48 8b 43 18          	mov    0x18(%rbx),%rax
  3f:	45 31 c9             	xor    %r9d,%r9d
  42:	48 85 c0             	test   %rax,%rax
  45:	75 e8                	jne    2f <_ZNSt8_Rb_treeIPvSt4pairIKS0_mESt10_Select1stIS3_ESt4lessIS0_ESaIS3_EE24_M_get_insert_unique_posERS2_+0x2f>
  47:	48 89 de             	mov    %rbx,%rsi
  4a:	45 84 c9             	test   %r9b,%r9b
  4d:	75 25                	jne    74 <_ZNSt8_Rb_treeIPvSt4pairIKS0_mESt10_Select1stIS3_ESt4lessIS0_ESaIS3_EE24_M_get_insert_unique_posERS2_+0x74>
  4f:	31 d2                	xor    %edx,%edx
  51:	48 89 d8             	mov    %rbx,%rax
  54:	49 39 c8             	cmp    %rcx,%r8
  57:	48 0f 47 c2          	cmova  %rdx,%rax
  5b:	48 0f 47 d6          	cmova  %rsi,%rdx
  5f:	48 83 c4 08          	add    $0x8,%rsp
  63:	5b                   	pop    %rbx
  64:	5d                   	pop    %rbp
  65:	c3                   	ret    
  66:	66 2e 0f 1f 84 00 00 	cs nopw 0x0(%rax,%rax,1)
  6d:	00 00 00 
  70:	48 8d 5f 08          	lea    0x8(%rdi),%rbx
  74:	31 c0                	xor    %eax,%eax
  76:	48 89 da             	mov    %rbx,%rdx
  79:	48 39 5f 18          	cmp    %rbx,0x18(%rdi)
  7d:	74 e0                	je     5f <_ZNSt8_Rb_treeIPvSt4pairIKS0_mESt10_Select1stIS3_ESt4lessIS0_ESaIS3_EE24_M_get_insert_unique_posERS2_+0x5f>
  7f:	48 89 df             	mov    %rbx,%rdi
  82:	e8 00 00 00 00       	call   87 <_ZNSt8_Rb_treeIPvSt4pairIKS0_mESt10_Select1stIS3_ESt4lessIS0_ESaIS3_EE24_M_get_insert_unique_posERS2_+0x87>
  87:	48 89 de             	mov    %rbx,%rsi
  8a:	4c 8b 45 00          	mov    0x0(%rbp),%r8
  8e:	48 8b 48 20          	mov    0x20(%rax),%rcx
  92:	48 89 c3             	mov    %rax,%rbx
  95:	eb b8                	jmp    4f <_ZNSt8_Rb_treeIPvSt4pairIKS0_mESt10_Select1stIS3_ESt4lessIS0_ESaIS3_EE24_M_get_insert_unique_posERS2_+0x4f>

Disassembly of section .text._ZNSt8_Rb_treeIPvSt4pairIKS0_mESt10_Select1stIS3_ESt4lessIS0_ESaIS3_EE29_M_get_insert_hint_unique_posESt23_Rb_tree_const_iteratorIS3_ERS2_:

0000000000000000 <_ZNSt8_Rb_treeIPvSt4pairIKS0_mESt10_Select1stIS3_ESt4lessIS0_ESaIS3_EE29_M_get_insert_hint_unique_posESt23_Rb_tree_const_iteratorIS3_ERS2_>:
   0:	f3 0f 1e fa          	endbr64 
   4:	41 55                	push   %r13
   6:	48 8d 47 08          	lea    0x8(%rdi),%rax
   a:	41 54                	push   %r12
   c:	49 89 d4             	mov    %rdx,%r12
   f:	55                   	push   %rbp
  10:	48 89 fd             	mov    %rdi,%rbp
  13:	53                   	push   %rbx
  14:	48 83 ec 08          	sub    $0x8,%rsp
  18:	48 39 c6             	cmp    %rax,%rsi
  1b:	0f 84 8f 00 00 00    	je     b0 <_ZNSt8_Rb_treeIPvSt4pairIKS0_mESt10_Select1stIS3_ESt4lessIS0_ESaIS3_EE29_M_get_insert_hint_unique_posESt23_Rb_tree_const_iteratorIS3_ERS2_+0xb0>
  21:	4c 8b 2a             	mov    (%rdx),%r13
  24:	48 89 f3             	mov    %rsi,%rbx
  27:	4c 39 6e 20          	cmp    %r13,0x20(%rsi)
  2b:	76 43                	jbe    70 <_ZNSt8_Rb_treeIPvSt4pairIKS0_mESt10_Select1stIS3_ESt4lessIS0_ESaIS3_EE29_M_get_insert_hint_unique_posESt23_Rb_tree_const_iteratorIS3_ERS2_+0x70>
  2d:	4c 8b 47 18          	mov    0x18(%rdi),%r8
  31:	4c 89 c2             	mov    %r8,%rdx
  34:	49 39 f0             	cmp    %rsi,%r8
  37:	74 24                	je     5d <_ZNSt8_Rb_treeIPvSt4pairIKS0_mESt10_Select1stIS3_ESt4lessIS0_ESaIS3_EE29_M_get_insert_hint_unique_posESt23_Rb_tree_const_iteratorIS3_ERS2_+0x5d>
  39:	48 89 f7             	mov    %rsi,%rdi
  3c:	e8 00 00 00 00       	call   41 <_ZNSt8_Rb_treeIPvSt4pairIKS0_mESt10_Select1stIS3_ESt4lessIS0_ESaIS3_EE29_M_get_insert_hint_unique_posESt23_Rb_tree_const_iteratorIS3_ERS2_+0x41>
  41:	4c 39 68 20          	cmp    %r13,0x20(%rax)
  45:	73 7d                	jae    c4 <_ZNSt8_Rb_treeIPvSt4pairIKS0_mESt10_Select1stIS3_ESt4lessIS0_ESaIS3_EE29_M_get_insert_hint_unique_posESt23_Rb_tree_const_iteratorIS3_ERS2_+0xc4>
  47:	48 83 78 18 00       	cmpq   $0x0,0x18(%rax)
  4c:	41 b8 00 00 00 00    	mov    $0x0,%r8d
  52:	4c 0f 45 c3          	cmovne %rbx,%r8
  56:	48 0f 44 d8          	cmove  %rax,%rbx
  5a:	48 89 da             	mov    %rbx,%rdx
  5d:	48 83 c4 08          	add    $0x8,%rsp
  61:	4c 89 c0             	mov    %r8,%rax
  64:	5b                   	pop    %rbx
  65:	5d                   	pop    %rbp
  66:	41 5c                	pop    %r12
  68:	41 5d                	pop    %r13
  6a:	c3                   	ret    
  6b:	0f 1f 44 00 00       	nopl   0x0(%rax,%rax,1)
  70:	73 6e                	jae    e0 <_ZNSt8_Rb_treeIPvSt4pairIKS0_mESt10_Select1stIS3_ESt4lessIS0_ESaIS3_EE29_M_get_insert_hint_unique_posESt23_Rb_tree_const_iteratorIS3_ERS2_+0xe0>
  72:	48 8b 47 20          	mov    0x20(%rdi),%rax
  76:	45 31 c0             	xor    %r8d,%r8d
  79:	48 89 c2             	mov    %rax,%rdx
  7c:	48 39 f0             	cmp    %rsi,%rax
  7f:	74 dc                	je     5d <_ZNSt8_Rb_treeIPvSt4pairIKS0_mESt10_Select1stIS3_ESt4lessIS0_ESaIS3_EE29_M_get_insert_hint_unique_posESt23_Rb_tree_const_iteratorIS3_ERS2_+0x5d>
  81:	48 89 f7             	mov    %rsi,%rdi
  84:	e8 00 00 00 00       	call   89 <_ZNSt8_Rb_treeIPvSt4pairIKS0_mESt10_Select1stIS3_ESt4lessIS0_ESaIS3_EE29_M_get_insert_hint_unique_posESt23_Rb_tree_const_iteratorIS3_ERS2_+0x89>
  89:	4c 39 68 20          	cmp    %r13,0x20(%rax)
  8d:	76 35                	jbe    c4 <_ZNSt8_Rb_treeIPvSt4pairIKS0_mESt10_Select1stIS3_ESt4lessIS0_ESaIS3_EE29_M_get_insert_hint_unique_posESt23_Rb_tree_const_iteratorIS3_ERS2_+0xc4>
  8f:	48 83 7b 18 00       	cmpq   $0x0,0x18(%rbx)
  94:	41 b8 00 00 00 00    	mov    $0x0,%r8d
  9a:	48 89 da             	mov    %rbx,%rdx
  9d:	4c 0f 45 c0          	cmovne %rax,%r8
  a1:	48 0f 45 d0          	cmovne %rax,%rdx
  a5:	eb b6                	jmp    5d <_ZNSt8_Rb_treeIPvSt4pairIKS0_mESt10_Select1stIS3_ESt4lessIS0_ESaIS3_EE29_M_get_insert_hint_unique_posESt23_Rb_tree_const_iteratorIS3_ERS2_+0x5d>
  a7:	66 0f 1f 84 00 00 00 	nopw   0x0(%rax,%rax,1)
  ae:	00 00 
  b0:	48 83 7f 28 00       	cmpq   $0x0,0x28(%rdi)
  b5:	74 0d                	je     c4 <_ZNSt8_Rb_treeIPvSt4pairIKS0_mESt10_Select1stIS3_ESt4lessIS0_ESaIS3_EE29_M_get_insert_hint_unique_posESt23_Rb_tree_const_iteratorIS3_ERS2_+0xc4>
  b7:	48 8b 5f 20          	mov    0x20(%rdi),%rbx
  bb:	48 8b 43 20          	mov    0x20(%rbx),%rax
  bf:	48 39 02             	cmp    %rax,(%rdx)
  c2:	77 34                	ja     f8 <_ZNSt8_Rb_treeIPvSt4pairIKS0_mESt10_Select1stIS3_ESt4lessIS0_ESaIS3_EE29_M_get_insert_hint_unique_posESt23_Rb_tree_const_iteratorIS3_ERS2_+0xf8>
  c4:	48 83 c4 08          	add    $0x8,%rsp
  c8:	4c 89 e6             	mov    %r12,%rsi
  cb:	48 89 ef             	mov    %rbp,%rdi
  ce:	5b                   	pop    %rbx
  cf:	5d                   	pop    %rbp
  d0:	41 5c                	pop    %r12
  d2:	41 5d                	pop    %r13
  d4:	e9 00 00 00 00       	jmp    d9 <_ZNSt8_Rb_treeIPvSt4pairIKS0_mESt10_Select1stIS3_ESt4lessIS0_ESaIS3_EE29_M_get_insert_hint_unique_posESt23_Rb_tree_const_iteratorIS3_ERS2_+0xd9>
  d9:	0f 1f 80 00 00 00 00 	nopl   0x0(%rax)
  e0:	48 83 c4 08          	add    $0x8,%rsp
  e4:	49 89 f0             	mov    %rsi,%r8
  e7:	31 d2                	xor    %edx,%edx
  e9:	5b                   	pop    %rbx
  ea:	4c 89 c0             	mov    %r8,%rax
  ed:	5d                   	pop    %rbp
  ee:	41 5c                	pop    %r12
  f0:	41 5d                	pop    %r13
  f2:	c3                   	ret    
  f3:	0f 1f 44 00 00       	nopl   0x0(%rax,%rax,1)
  f8:	48 83 c4 08          	add    $0x8,%rsp
  fc:	45 31 c0             	xor    %r8d,%r8d
  ff:	48 89 da             	mov    %rbx,%rdx
 102:	4c 89 c0             	mov    %r8,%rax
 105:	5b                   	pop    %rbx
 106:	5d                   	pop    %rbp
 107:	41 5c                	pop    %r12
 109:	41 5d                	pop    %r13
 10b:	c3                   	ret    

Disassembly of section .text._ZNSt8_Rb_treeIPvSt4pairIKS0_13_attributes_tESt10_Select1stIS4_ESt4lessIS0_ESaIS4_EE24_M_get_insert_unique_posERS2_:

0000000000000000 <_ZNSt8_Rb_treeIPvSt4pairIKS0_13_attributes_tESt10_Select1stIS4_ESt4lessIS0_ESaIS4_EE24_M_get_insert_unique_posERS2_>:
   0:	f3 0f 1e fa          	endbr64 
   4:	55                   	push   %rbp
   5:	48 89 f5             	mov    %rsi,%rbp
   8:	53                   	push   %rbx
   9:	48 83 ec 08          	sub    $0x8,%rsp
   d:	48 8b 5f 10          	mov    0x10(%rdi),%rbx
  11:	48 85 db             	test   %rbx,%rbx
  14:	74 5a                	je     70 <_ZNSt8_Rb_treeIPvSt4pairIKS0_13_attributes_tESt10_Select1stIS4_ESt4lessIS0_ESaIS4_EE24_M_get_insert_unique_posERS2_+0x70>
  16:	4c 8b 06             	mov    (%rsi),%r8
  19:	eb 17                	jmp    32 <_ZNSt8_Rb_treeIPvSt4pairIKS0_13_attributes_tESt10_Select1stIS4_ESt4lessIS0_ESaIS4_EE24_M_get_insert_unique_posERS2_+0x32>
  1b:	0f 1f 44 00 00       	nopl   0x0(%rax,%rax,1)
  20:	48 8b 43 10          	mov    0x10(%rbx),%rax
  24:	41 b9 01 00 00 00    	mov    $0x1,%r9d
  2a:	48 85 c0             	test   %rax,%rax
  2d:	74 18                	je     47 <_ZNSt8_Rb_treeIPvSt4pairIKS0_13_attributes_tESt10_Select1stIS4_ESt4lessIS0_ESaIS4_EE24_M_get_insert_unique_posERS2_+0x47>
  2f:	48 89 c3             	mov    %rax,%rbx
  32:	48 8b 4b 20          	mov    0x20(%rbx),%rcx
  36:	4c 39 c1             	cmp    %r8,%rcx
  39:	77 e5                	ja     20 <_ZNSt8_Rb_treeIPvSt4pairIKS0_13_attributes_tESt10_Select1stIS4_ESt4lessIS0_ESaIS4_EE24_M_get_insert_unique_posERS2_+0x20>
  3b:	48 8b 43 18          	mov    0x18(%rbx),%rax
  3f:	45 31 c9             	xor    %r9d,%r9d
  42:	48 85 c0             	test   %rax,%rax
  45:	75 e8                	jne    2f <_ZNSt8_Rb_treeIPvSt4pairIKS0_13_attributes_tESt10_Select1stIS4_ESt4lessIS0_ESaIS4_EE24_M_get_insert_unique_posERS2_+0x2f>
  47:	48 89 de             	mov    %rbx,%rsi
  4a:	45 84 c9             	test   %r9b,%r9b
  4d:	75 25                	jne    74 <_ZNSt8_Rb_treeIPvSt4pairIKS0_13_attributes_tESt10_Select1stIS4_ESt4lessIS0_ESaIS4_EE24_M_get_insert_unique_posERS2_+0x74>
  4f:	31 d2                	xor    %edx,%edx
  51:	48 89 d8             	mov    %rbx,%rax
  54:	49 39 c8             	cmp    %rcx,%r8
  57:	48 0f 47 c2          	cmova  %rdx,%rax
  5b:	48 0f 47 d6          	cmova  %rsi,%rdx
  5f:	48 83 c4 08          	add    $0x8,%rsp
  63:	5b                   	pop    %rbx
  64:	5d                   	pop    %rbp
  65:	c3                   	ret    
  66:	66 2e 0f 1f 84 00 00 	cs nopw 0x0(%rax,%rax,1)
  6d:	00 00 00 
  70:	48 8d 5f 08          	lea    0x8(%rdi),%rbx
  74:	31 c0                	xor    %eax,%eax
  76:	48 89 da             	mov    %rbx,%rdx
  79:	48 39 5f 18          	cmp    %rbx,0x18(%rdi)
  7d:	74 e0                	je     5f <_ZNSt8_Rb_treeIPvSt4pairIKS0_13_attributes_tESt10_Select1stIS4_ESt4lessIS0_ESaIS4_EE24_M_get_insert_unique_posERS2_+0x5f>
  7f:	48 89 df             	mov    %rbx,%rdi
  82:	e8 00 00 00 00       	call   87 <_ZNSt8_Rb_treeIPvSt4pairIKS0_13_attributes_tESt10_Select1stIS4_ESt4lessIS0_ESaIS4_EE24_M_get_insert_unique_posERS2_+0x87>
  87:	48 89 de             	mov    %rbx,%rsi
  8a:	4c 8b 45 00          	mov    0x0(%rbp),%r8
  8e:	48 8b 48 20          	mov    0x20(%rax),%rcx
  92:	48 89 c3             	mov    %rax,%rbx
  95:	eb b8                	jmp    4f <_ZNSt8_Rb_treeIPvSt4pairIKS0_13_attributes_tESt10_Select1stIS4_ESt4lessIS0_ESaIS4_EE24_M_get_insert_unique_posERS2_+0x4f>

Disassembly of section .text._ZNSt8_Rb_treeIPvSt4pairIKS0_13_attributes_tESt10_Select1stIS4_ESt4lessIS0_ESaIS4_EE29_M_get_insert_hint_unique_posESt23_Rb_tree_const_iteratorIS4_ERS2_:

0000000000000000 <_ZNSt8_Rb_treeIPvSt4pairIKS0_13_attributes_tESt10_Select1stIS4_ESt4lessIS0_ESaIS4_EE29_M_get_insert_hint_unique_posESt23_Rb_tree_const_iteratorIS4_ERS2_>:
   0:	f3 0f 1e fa          	endbr64 
   4:	41 55                	push   %r13
   6:	48 8d 47 08          	lea    0x8(%rdi),%rax
   a:	41 54                	push   %r12
   c:	49 89 d4             	mov    %rdx,%r12
   f:	55                   	push   %rbp
  10:	48 89 fd             	mov    %rdi,%rbp
  13:	53                   	push   %rbx
  14:	48 83 ec 08          	sub    $0x8,%rsp
  18:	48 39 c6             	cmp    %rax,%rsi
  1b:	0f 84 8f 00 00 00    	je     b0 <_ZNSt8_Rb_treeIPvSt4pairIKS0_13_attributes_tESt10_Select1stIS4_ESt4lessIS0_ESaIS4_EE29_M_get_insert_hint_unique_posESt23_Rb_tree_const_iteratorIS4_ERS2_+0xb0>
  21:	4c 8b 2a             	mov    (%rdx),%r13
  24:	48 89 f3             	mov    %rsi,%rbx
  27:	4c 39 6e 20          	cmp    %r13,0x20(%rsi)
  2b:	76 43                	jbe    70 <_ZNSt8_Rb_treeIPvSt4pairIKS0_13_attributes_tESt10_Select1stIS4_ESt4lessIS0_ESaIS4_EE29_M_get_insert_hint_unique_posESt23_Rb_tree_const_iteratorIS4_ERS2_+0x70>
  2d:	4c 8b 47 18          	mov    0x18(%rdi),%r8
  31:	4c 89 c2             	mov    %r8,%rdx
  34:	49 39 f0             	cmp    %rsi,%r8
  37:	74 24                	je     5d <_ZNSt8_Rb_treeIPvSt4pairIKS0_13_attributes_tESt10_Select1stIS4_ESt4lessIS0_ESaIS4_EE29_M_get_insert_hint_unique_posESt23_Rb_tree_const_iteratorIS4_ERS2_+0x5d>
  39:	48 89 f7             	mov    %rsi,%rdi
  3c:	e8 00 00 00 00       	call   41 <_ZNSt8_Rb_treeIPvSt4pairIKS0_13_attributes_tESt10_Select1stIS4_ESt4lessIS0_ESaIS4_EE29_M_get_insert_hint_unique_posESt23_Rb_tree_const_iteratorIS4_ERS2_+0x41>
  41:	4c 39 68 20          	cmp    %r13,0x20(%rax)
  45:	73 7d                	jae    c4 <_ZNSt8_Rb_treeIPvSt4pairIKS0_13_attributes_tESt10_Select1stIS4_ESt4lessIS0_ESaIS4_EE29_M_get_insert_hint_unique_posESt23_Rb_tree_const_iteratorIS4_ERS2_+0xc4>
  47:	48 83 78 18 00       	cmpq   $0x0,0x18(%rax)
  4c:	41 b8 00 00 00 00    	mov    $0x0,%r8d
  52:	4c 0f 45 c3          	cmovne %rbx,%r8
  56:	48 0f 44 d8          	cmove  %rax,%rbx
  5a:	48 89 da             	mov    %rbx,%rdx
  5d:	48 83 c4 08          	add    $0x8,%rsp
  61:	4c 89 c0             	mov    %r8,%rax
  64:	5b                   	pop    %rbx
  65:	5d                   	pop    %rbp
  66:	41 5c                	pop    %r12
  68:	41 5d                	pop    %r13
  6a:	c3                   	ret    
  6b:	0f 1f 44 00 00       	nopl   0x0(%rax,%rax,1)
  70:	73 6e                	jae    e0 <_ZNSt8_Rb_treeIPvSt4pairIKS0_13_attributes_tESt10_Select1stIS4_ESt4lessIS0_ESaIS4_EE29_M_get_insert_hint_unique_posESt23_Rb_tree_const_iteratorIS4_ERS2_+0xe0>
  72:	48 8b 47 20          	mov    0x20(%rdi),%rax
  76:	45 31 c0             	xor    %r8d,%r8d
  79:	48 89 c2             	mov    %rax,%rdx
  7c:	48 39 f0             	cmp    %rsi,%rax
  7f:	74 dc                	je     5d <_ZNSt8_Rb_treeIPvSt4pairIKS0_13_attributes_tESt10_Select1stIS4_ESt4lessIS0_ESaIS4_EE29_M_get_insert_hint_unique_posESt23_Rb_tree_const_iteratorIS4_ERS2_+0x5d>
  81:	48 89 f7             	mov    %rsi,%rdi
  84:	e8 00 00 00 00       	call   89 <_ZNSt8_Rb_treeIPvSt4pairIKS0_13_attributes_tESt10_Select1stIS4_ESt4lessIS0_ESaIS4_EE29_M_get_insert_hint_unique_posESt23_Rb_tree_const_iteratorIS4_ERS2_+0x89>
  89:	4c 39 68 20          	cmp    %r13,0x20(%rax)
  8d:	76 35                	jbe    c4 <_ZNSt8_Rb_treeIPvSt4pairIKS0_13_attributes_tESt10_Select1stIS4_ESt4lessIS0_ESaIS4_EE29_M_get_insert_hint_unique_posESt23_Rb_tree_const_iteratorIS4_ERS2_+0xc4>
  8f:	48 83 7b 18 00       	cmpq   $0x0,0x18(%rbx)
  94:	41 b8 00 00 00 00    	mov    $0x0,%r8d
  9a:	48 89 da             	mov    %rbx,%rdx
  9d:	4c 0f 45 c0          	cmovne %rax,%r8
  a1:	48 0f 45 d0          	cmovne %rax,%rdx
  a5:	eb b6                	jmp    5d <_ZNSt8_Rb_treeIPvSt4pairIKS0_13_attributes_tESt10_Select1stIS4_ESt4lessIS0_ESaIS4_EE29_M_get_insert_hint_unique_posESt23_Rb_tree_const_iteratorIS4_ERS2_+0x5d>
  a7:	66 0f 1f 84 00 00 00 	nopw   0x0(%rax,%rax,1)
  ae:	00 00 
  b0:	48 83 7f 28 00       	cmpq   $0x0,0x28(%rdi)
  b5:	74 0d                	je     c4 <_ZNSt8_Rb_treeIPvSt4pairIKS0_13_attributes_tESt10_Select1stIS4_ESt4lessIS0_ESaIS4_EE29_M_get_insert_hint_unique_posESt23_Rb_tree_const_iteratorIS4_ERS2_+0xc4>
  b7:	48 8b 5f 20          	mov    0x20(%rdi),%rbx
  bb:	48 8b 43 20          	mov    0x20(%rbx),%rax
  bf:	48 39 02             	cmp    %rax,(%rdx)
  c2:	77 34                	ja     f8 <_ZNSt8_Rb_treeIPvSt4pairIKS0_13_attributes_tESt10_Select1stIS4_ESt4lessIS0_ESaIS4_EE29_M_get_insert_hint_unique_posESt23_Rb_tree_const_iteratorIS4_ERS2_+0xf8>
  c4:	48 83 c4 08          	add    $0x8,%rsp
  c8:	4c 89 e6             	mov    %r12,%rsi
  cb:	48 89 ef             	mov    %rbp,%rdi
  ce:	5b                   	pop    %rbx
  cf:	5d                   	pop    %rbp
  d0:	41 5c                	pop    %r12
  d2:	41 5d                	pop    %r13
  d4:	e9 00 00 00 00       	jmp    d9 <_ZNSt8_Rb_treeIPvSt4pairIKS0_13_attributes_tESt10_Select1stIS4_ESt4lessIS0_ESaIS4_EE29_M_get_insert_hint_unique_posESt23_Rb_tree_const_iteratorIS4_ERS2_+0xd9>
  d9:	0f 1f 80 00 00 00 00 	nopl   0x0(%rax)
  e0:	48 83 c4 08          	add    $0x8,%rsp
  e4:	49 89 f0             	mov    %rsi,%r8
  e7:	31 d2                	xor    %edx,%edx
  e9:	5b                   	pop    %rbx
  ea:	4c 89 c0             	mov    %r8,%rax
  ed:	5d                   	pop    %rbp
  ee:	41 5c                	pop    %r12
  f0:	41 5d                	pop    %r13
  f2:	c3                   	ret    
  f3:	0f 1f 44 00 00       	nopl   0x0(%rax,%rax,1)
  f8:	48 83 c4 08          	add    $0x8,%rsp
  fc:	45 31 c0             	xor    %r8d,%r8d
  ff:	48 89 da             	mov    %rbx,%rdx
 102:	4c 89 c0             	mov    %r8,%rax
 105:	5b                   	pop    %rbx
 106:	5d                   	pop    %rbp
 107:	41 5c                	pop    %r12
 109:	41 5d                	pop    %r13
 10b:	c3                   	ret    

Disassembly of section .text._ZNSt8_Rb_treeIPvSt4pairIKS0_13_mem_region_tESt10_Select1stIS4_ESt4lessIS0_ESaIS4_EE24_M_get_insert_unique_posERS2_:

0000000000000000 <_ZNSt8_Rb_treeIPvSt4pairIKS0_13_mem_region_tESt10_Select1stIS4_ESt4lessIS0_ESaIS4_EE24_M_get_insert_unique_posERS2_>:
   0:	f3 0f 1e fa          	endbr64 
   4:	55                   	push   %rbp
   5:	48 89 f5             	mov    %rsi,%rbp
   8:	53                   	push   %rbx
   9:	48 83 ec 08          	sub    $0x8,%rsp
   d:	48 8b 5f 10          	mov    0x10(%rdi),%rbx
  11:	48 85 db             	test   %rbx,%rbx
  14:	74 5a                	je     70 <_ZNSt8_Rb_treeIPvSt4pairIKS0_13_mem_region_tESt10_Select1stIS4_ESt4lessIS0_ESaIS4_EE24_M_get_insert_unique_posERS2_+0x70>
  16:	4c 8b 06             	mov    (%rsi),%r8
  19:	eb 17                	jmp    32 <_ZNSt8_Rb_treeIPvSt4pairIKS0_13_mem_region_tESt10_Select1stIS4_ESt4lessIS0_ESaIS4_EE24_M_get_insert_unique_posERS2_+0x32>
  1b:	0f 1f 44 00 00       	nopl   0x0(%rax,%rax,1)
  20:	48 8b 43 10          	mov    0x10(%rbx),%rax
  24:	41 b9 01 00 00 00    	mov    $0x1,%r9d
  2a:	48 85 c0             	test   %rax,%rax
  2d:	74 18                	je     47 <_ZNSt8_Rb_treeIPvSt4pairIKS0_13_mem_region_tESt10_Select1stIS4_ESt4lessIS0_ESaIS4_EE24_M_get_insert_unique_posERS2_+0x47>
  2f:	48 89 c3             	mov    %rax,%rbx
  32:	48 8b 4b 20          	mov    0x20(%rbx),%rcx
  36:	4c 39 c1             	cmp    %r8,%rcx
  39:	77 e5                	ja     20 <_ZNSt8_Rb_treeIPvSt4pairIKS0_13_mem_region_tESt10_Select1stIS4_ESt4lessIS0_ESaIS4_EE24_M_get_insert_unique_posERS2_+0x20>
  3b:	48 8b 43 18          	mov    0x18(%rbx),%rax
  3f:	45 31 c9             	xor    %r9d,%r9d
  42:	48 85 c0             	test   %rax,%rax
  45:	75 e8                	jne    2f <_ZNSt8_Rb_treeIPvSt4pairIKS0_13_mem_region_tESt10_Select1stIS4_ESt4lessIS0_ESaIS4_EE24_M_get_insert_unique_posERS2_+0x2f>
  47:	48 89 de             	mov    %rbx,%rsi
  4a:	45 84 c9             	test   %r9b,%r9b
  4d:	75 25                	jne    74 <_ZNSt8_Rb_treeIPvSt4pairIKS0_13_mem_region_tESt10_Select1stIS4_ESt4lessIS0_ESaIS4_EE24_M_get_insert_unique_posERS2_+0x74>
  4f:	31 d2                	xor    %edx,%edx
  51:	48 89 d8             	mov    %rbx,%rax
  54:	49 39 c8             	cmp    %rcx,%r8
  57:	48 0f 47 c2          	cmova  %rdx,%rax
  5b:	48 0f 47 d6          	cmova  %rsi,%rdx
  5f:	48 83 c4 08          	add    $0x8,%rsp
  63:	5b                   	pop    %rbx
  64:	5d                   	pop    %rbp
  65:	c3                   	ret    
  66:	66 2e 0f 1f 84 00 00 	cs nopw 0x0(%rax,%rax,1)
  6d:	00 00 00 
  70:	48 8d 5f 08          	lea    0x8(%rdi),%rbx
  74:	31 c0                	xor    %eax,%eax
  76:	48 89 da             	mov    %rbx,%rdx
  79:	48 39 5f 18          	cmp    %rbx,0x18(%rdi)
  7d:	74 e0                	je     5f <_ZNSt8_Rb_treeIPvSt4pairIKS0_13_mem_region_tESt10_Select1stIS4_ESt4lessIS0_ESaIS4_EE24_M_get_insert_unique_posERS2_+0x5f>
  7f:	48 89 df             	mov    %rbx,%rdi
  82:	e8 00 00 00 00       	call   87 <_ZNSt8_Rb_treeIPvSt4pairIKS0_13_mem_region_tESt10_Select1stIS4_ESt4lessIS0_ESaIS4_EE24_M_get_insert_unique_posERS2_+0x87>
  87:	48 89 de             	mov    %rbx,%rsi
  8a:	4c 8b 45 00          	mov    0x0(%rbp),%r8
  8e:	48 8b 48 20          	mov    0x20(%rax),%rcx
  92:	48 89 c3             	mov    %rax,%rbx
  95:	eb b8                	jmp    4f <_ZNSt8_Rb_treeIPvSt4pairIKS0_13_mem_region_tESt10_Select1stIS4_ESt4lessIS0_ESaIS4_EE24_M_get_insert_unique_posERS2_+0x4f>

Disassembly of section .text._ZNSt8_Rb_treeIPvSt4pairIKS0_13_mem_region_tESt10_Select1stIS4_ESt4lessIS0_ESaIS4_EE29_M_get_insert_hint_unique_posESt23_Rb_tree_const_iteratorIS4_ERS2_:

0000000000000000 <_ZNSt8_Rb_treeIPvSt4pairIKS0_13_mem_region_tESt10_Select1stIS4_ESt4lessIS0_ESaIS4_EE29_M_get_insert_hint_unique_posESt23_Rb_tree_const_iteratorIS4_ERS2_>:
   0:	f3 0f 1e fa          	endbr64 
   4:	41 55                	push   %r13
   6:	48 8d 47 08          	lea    0x8(%rdi),%rax
   a:	41 54                	push   %r12
   c:	49 89 d4             	mov    %rdx,%r12
   f:	55                   	push   %rbp
  10:	48 89 fd             	mov    %rdi,%rbp
  13:	53                   	push   %rbx
  14:	48 83 ec 08          	sub    $0x8,%rsp
  18:	48 39 c6             	cmp    %rax,%rsi
  1b:	0f 84 8f 00 00 00    	je     b0 <_ZNSt8_Rb_treeIPvSt4pairIKS0_13_mem_region_tESt10_Select1stIS4_ESt4lessIS0_ESaIS4_EE29_M_get_insert_hint_unique_posESt23_Rb_tree_const_iteratorIS4_ERS2_+0xb0>
  21:	4c 8b 2a             	mov    (%rdx),%r13
  24:	48 89 f3             	mov    %rsi,%rbx
  27:	4c 39 6e 20          	cmp    %r13,0x20(%rsi)
  2b:	76 43                	jbe    70 <_ZNSt8_Rb_treeIPvSt4pairIKS0_13_mem_region_tESt10_Select1stIS4_ESt4lessIS0_ESaIS4_EE29_M_get_insert_hint_unique_posESt23_Rb_tree_const_iteratorIS4_ERS2_+0x70>
  2d:	4c 8b 47 18          	mov    0x18(%rdi),%r8
  31:	4c 89 c2             	mov    %r8,%rdx
  34:	49 39 f0             	cmp    %rsi,%r8
  37:	74 24                	je     5d <_ZNSt8_Rb_treeIPvSt4pairIKS0_13_mem_region_tESt10_Select1stIS4_ESt4lessIS0_ESaIS4_EE29_M_get_insert_hint_unique_posESt23_Rb_tree_const_iteratorIS4_ERS2_+0x5d>
  39:	48 89 f7             	mov    %rsi,%rdi
  3c:	e8 00 00 00 00       	call   41 <_ZNSt8_Rb_treeIPvSt4pairIKS0_13_mem_region_tESt10_Select1stIS4_ESt4lessIS0_ESaIS4_EE29_M_get_insert_hint_unique_posESt23_Rb_tree_const_iteratorIS4_ERS2_+0x41>
  41:	4c 39 68 20          	cmp    %r13,0x20(%rax)
  45:	73 7d                	jae    c4 <_ZNSt8_Rb_treeIPvSt4pairIKS0_13_mem_region_tESt10_Select1stIS4_ESt4lessIS0_ESaIS4_EE29_M_get_insert_hint_unique_posESt23_Rb_tree_const_iteratorIS4_ERS2_+0xc4>
  47:	48 83 78 18 00       	cmpq   $0x0,0x18(%rax)
  4c:	41 b8 00 00 00 00    	mov    $0x0,%r8d
  52:	4c 0f 45 c3          	cmovne %rbx,%r8
  56:	48 0f 44 d8          	cmove  %rax,%rbx
  5a:	48 89 da             	mov    %rbx,%rdx
  5d:	48 83 c4 08          	add    $0x8,%rsp
  61:	4c 89 c0             	mov    %r8,%rax
  64:	5b                   	pop    %rbx
  65:	5d                   	pop    %rbp
  66:	41 5c                	pop    %r12
  68:	41 5d                	pop    %r13
  6a:	c3                   	ret    
  6b:	0f 1f 44 00 00       	nopl   0x0(%rax,%rax,1)
  70:	73 6e                	jae    e0 <_ZNSt8_Rb_treeIPvSt4pairIKS0_13_mem_region_tESt10_Select1stIS4_ESt4lessIS0_ESaIS4_EE29_M_get_insert_hint_unique_posESt23_Rb_tree_const_iteratorIS4_ERS2_+0xe0>
  72:	48 8b 47 20          	mov    0x20(%rdi),%rax
  76:	45 31 c0             	xor    %r8d,%r8d
  79:	48 89 c2             	mov    %rax,%rdx
  7c:	48 39 f0             	cmp    %rsi,%rax
  7f:	74 dc                	je     5d <_ZNSt8_Rb_treeIPvSt4pairIKS0_13_mem_region_tESt10_Select1stIS4_ESt4lessIS0_ESaIS4_EE29_M_get_insert_hint_unique_posESt23_Rb_tree_const_iteratorIS4_ERS2_+0x5d>
  81:	48 89 f7             	mov    %rsi,%rdi
  84:	e8 00 00 00 00       	call   89 <_ZNSt8_Rb_treeIPvSt4pairIKS0_13_mem_region_tESt10_Select1stIS4_ESt4lessIS0_ESaIS4_EE29_M_get_insert_hint_unique_posESt23_Rb_tree_const_iteratorIS4_ERS2_+0x89>
  89:	4c 39 68 20          	cmp    %r13,0x20(%rax)
  8d:	76 35                	jbe    c4 <_ZNSt8_Rb_treeIPvSt4pairIKS0_13_mem_region_tESt10_Select1stIS4_ESt4lessIS0_ESaIS4_EE29_M_get_insert_hint_unique_posESt23_Rb_tree_const_iteratorIS4_ERS2_+0xc4>
  8f:	48 83 7b 18 00       	cmpq   $0x0,0x18(%rbx)
  94:	41 b8 00 00 00 00    	mov    $0x0,%r8d
  9a:	48 89 da             	mov    %rbx,%rdx
  9d:	4c 0f 45 c0          	cmovne %rax,%r8
  a1:	48 0f 45 d0          	cmovne %rax,%rdx
  a5:	eb b6                	jmp    5d <_ZNSt8_Rb_treeIPvSt4pairIKS0_13_mem_region_tESt10_Select1stIS4_ESt4lessIS0_ESaIS4_EE29_M_get_insert_hint_unique_posESt23_Rb_tree_const_iteratorIS4_ERS2_+0x5d>
  a7:	66 0f 1f 84 00 00 00 	nopw   0x0(%rax,%rax,1)
  ae:	00 00 
  b0:	48 83 7f 28 00       	cmpq   $0x0,0x28(%rdi)
  b5:	74 0d                	je     c4 <_ZNSt8_Rb_treeIPvSt4pairIKS0_13_mem_region_tESt10_Select1stIS4_ESt4lessIS0_ESaIS4_EE29_M_get_insert_hint_unique_posESt23_Rb_tree_const_iteratorIS4_ERS2_+0xc4>
  b7:	48 8b 5f 20          	mov    0x20(%rdi),%rbx
  bb:	48 8b 43 20          	mov    0x20(%rbx),%rax
  bf:	48 39 02             	cmp    %rax,(%rdx)
  c2:	77 34                	ja     f8 <_ZNSt8_Rb_treeIPvSt4pairIKS0_13_mem_region_tESt10_Select1stIS4_ESt4lessIS0_ESaIS4_EE29_M_get_insert_hint_unique_posESt23_Rb_tree_const_iteratorIS4_ERS2_+0xf8>
  c4:	48 83 c4 08          	add    $0x8,%rsp
  c8:	4c 89 e6             	mov    %r12,%rsi
  cb:	48 89 ef             	mov    %rbp,%rdi
  ce:	5b                   	pop    %rbx
  cf:	5d                   	pop    %rbp
  d0:	41 5c                	pop    %r12
  d2:	41 5d                	pop    %r13
  d4:	e9 00 00 00 00       	jmp    d9 <_ZNSt8_Rb_treeIPvSt4pairIKS0_13_mem_region_tESt10_Select1stIS4_ESt4lessIS0_ESaIS4_EE29_M_get_insert_hint_unique_posESt23_Rb_tree_const_iteratorIS4_ERS2_+0xd9>
  d9:	0f 1f 80 00 00 00 00 	nopl   0x0(%rax)
  e0:	48 83 c4 08          	add    $0x8,%rsp
  e4:	49 89 f0             	mov    %rsi,%r8
  e7:	31 d2                	xor    %edx,%edx
  e9:	5b                   	pop    %rbx
  ea:	4c 89 c0             	mov    %r8,%rax
  ed:	5d                   	pop    %rbp
  ee:	41 5c                	pop    %r12
  f0:	41 5d                	pop    %r13
  f2:	c3                   	ret    
  f3:	0f 1f 44 00 00       	nopl   0x0(%rax,%rax,1)
  f8:	48 83 c4 08          	add    $0x8,%rsp
  fc:	45 31 c0             	xor    %r8d,%r8d
  ff:	48 89 da             	mov    %rbx,%rdx
 102:	4c 89 c0             	mov    %r8,%rax
 105:	5b                   	pop    %rbx
 106:	5d                   	pop    %rbp
 107:	41 5c                	pop    %r12
 109:	41 5d                	pop    %r13
 10b:	c3                   	ret    

Disassembly of section .text._ZNSt8_Rb_treeIPvSt4pairIKS0_13_mem_region_tESt10_Select1stIS4_ESt4lessIS0_ESaIS4_EE22_M_emplace_hint_uniqueIJRKSt21piecewise_construct_tSt5tupleIJRS2_EESF_IJEEEEESt17_Rb_tree_iteratorIS4_ESt23_Rb_tree_const_iteratorIS4_EDpOT_:

0000000000000000 <_ZNSt8_Rb_treeIPvSt4pairIKS0_13_mem_region_tESt10_Select1stIS4_ESt4lessIS0_ESaIS4_EE22_M_emplace_hint_uniqueIJRKSt21piecewise_construct_tSt5tupleIJRS2_EESF_IJEEEEESt17_Rb_tree_iteratorIS4_ESt23_Rb_tree_const_iteratorIS4_EDpOT_>:
   0:	f3 0f 1e fa          	endbr64 
   4:	41 55                	push   %r13
   6:	49 89 cd             	mov    %rcx,%r13
   9:	41 54                	push   %r12
   b:	49 89 f4             	mov    %rsi,%r12
   e:	55                   	push   %rbp
   f:	53                   	push   %rbx
  10:	48 89 fb             	mov    %rdi,%rbx
  13:	bf 40 00 00 00       	mov    $0x40,%edi
  18:	48 83 ec 08          	sub    $0x8,%rsp
  1c:	e8 00 00 00 00       	call   21 <_ZNSt8_Rb_treeIPvSt4pairIKS0_13_mem_region_tESt10_Select1stIS4_ESt4lessIS0_ESaIS4_EE22_M_emplace_hint_uniqueIJRKSt21piecewise_construct_tSt5tupleIJRS2_EESF_IJEEEEESt17_Rb_tree_iteratorIS4_ESt23_Rb_tree_const_iteratorIS4_EDpOT_+0x21>
  21:	4c 89 e6             	mov    %r12,%rsi
  24:	48 89 df             	mov    %rbx,%rdi
  27:	48 89 c5             	mov    %rax,%rbp
  2a:	49 8b 45 00          	mov    0x0(%r13),%rax
  2e:	48 8d 55 20          	lea    0x20(%rbp),%rdx
  32:	48 c7 45 28 00 00 00 	movq   $0x0,0x28(%rbp)
  39:	00 
  3a:	48 8b 00             	mov    (%rax),%rax
  3d:	48 c7 45 30 00 00 00 	movq   $0x0,0x30(%rbp)
  44:	00 
  45:	c7 45 38 00 00 00 00 	movl   $0x0,0x38(%rbp)
  4c:	48 89 45 20          	mov    %rax,0x20(%rbp)
  50:	e8 00 00 00 00       	call   55 <_ZNSt8_Rb_treeIPvSt4pairIKS0_13_mem_region_tESt10_Select1stIS4_ESt4lessIS0_ESaIS4_EE22_M_emplace_hint_uniqueIJRKSt21piecewise_construct_tSt5tupleIJRS2_EESF_IJEEEEESt17_Rb_tree_iteratorIS4_ESt23_Rb_tree_const_iteratorIS4_EDpOT_+0x55>
  55:	49 89 c4             	mov    %rax,%r12
  58:	48 85 d2             	test   %rdx,%rdx
  5b:	74 4b                	je     a8 <_ZNSt8_Rb_treeIPvSt4pairIKS0_13_mem_region_tESt10_Select1stIS4_ESt4lessIS0_ESaIS4_EE22_M_emplace_hint_uniqueIJRKSt21piecewise_construct_tSt5tupleIJRS2_EESF_IJEEEEESt17_Rb_tree_iteratorIS4_ESt23_Rb_tree_const_iteratorIS4_EDpOT_+0xa8>
  5d:	48 8d 4b 08          	lea    0x8(%rbx),%rcx
  61:	bf 01 00 00 00       	mov    $0x1,%edi
  66:	48 85 c0             	test   %rax,%rax
  69:	74 25                	je     90 <_ZNSt8_Rb_treeIPvSt4pairIKS0_13_mem_region_tESt10_Select1stIS4_ESt4lessIS0_ESaIS4_EE22_M_emplace_hint_uniqueIJRKSt21piecewise_construct_tSt5tupleIJRS2_EESF_IJEEEEESt17_Rb_tree_iteratorIS4_ESt23_Rb_tree_const_iteratorIS4_EDpOT_+0x90>
  6b:	48 89 ee             	mov    %rbp,%rsi
  6e:	e8 00 00 00 00       	call   73 <_ZNSt8_Rb_treeIPvSt4pairIKS0_13_mem_region_tESt10_Select1stIS4_ESt4lessIS0_ESaIS4_EE22_M_emplace_hint_uniqueIJRKSt21piecewise_construct_tSt5tupleIJRS2_EESF_IJEEEEESt17_Rb_tree_iteratorIS4_ESt23_Rb_tree_const_iteratorIS4_EDpOT_+0x73>
  73:	48 83 43 28 01       	addq   $0x1,0x28(%rbx)
  78:	48 83 c4 08          	add    $0x8,%rsp
  7c:	48 89 e8             	mov    %rbp,%rax
  7f:	5b                   	pop    %rbx
  80:	5d                   	pop    %rbp
  81:	41 5c                	pop    %r12
  83:	41 5d                	pop    %r13
  85:	c3                   	ret    
  86:	66 2e 0f 1f 84 00 00 	cs nopw 0x0(%rax,%rax,1)
  8d:	00 00 00 
  90:	48 39 ca             	cmp    %rcx,%rdx
  93:	74 d6                	je     6b <_ZNSt8_Rb_treeIPvSt4pairIKS0_13_mem_region_tESt10_Select1stIS4_ESt4lessIS0_ESaIS4_EE22_M_emplace_hint_uniqueIJRKSt21piecewise_construct_tSt5tupleIJRS2_EESF_IJEEEEESt17_Rb_tree_iteratorIS4_ESt23_Rb_tree_const_iteratorIS4_EDpOT_+0x6b>
  95:	31 ff                	xor    %edi,%edi
  97:	48 8b 42 20          	mov    0x20(%rdx),%rax
  9b:	48 39 45 20          	cmp    %rax,0x20(%rbp)
  9f:	40 0f 92 c7          	setb   %dil
  a3:	eb c6                	jmp    6b <_ZNSt8_Rb_treeIPvSt4pairIKS0_13_mem_region_tESt10_Select1stIS4_ESt4lessIS0_ESaIS4_EE22_M_emplace_hint_uniqueIJRKSt21piecewise_construct_tSt5tupleIJRS2_EESF_IJEEEEESt17_Rb_tree_iteratorIS4_ESt23_Rb_tree_const_iteratorIS4_EDpOT_+0x6b>
  a5:	0f 1f 00             	nopl   (%rax)
  a8:	48 89 ef             	mov    %rbp,%rdi
  ab:	e8 00 00 00 00       	call   b0 <_ZNSt8_Rb_treeIPvSt4pairIKS0_13_mem_region_tESt10_Select1stIS4_ESt4lessIS0_ESaIS4_EE22_M_emplace_hint_uniqueIJRKSt21piecewise_construct_tSt5tupleIJRS2_EESF_IJEEEEESt17_Rb_tree_iteratorIS4_ESt23_Rb_tree_const_iteratorIS4_EDpOT_+0xb0>
  b0:	48 83 c4 08          	add    $0x8,%rsp
  b4:	4c 89 e0             	mov    %r12,%rax
  b7:	5b                   	pop    %rbx
  b8:	5d                   	pop    %rbp
  b9:	41 5c                	pop    %r12
  bb:	41 5d                	pop    %r13
  bd:	c3                   	ret    

Disassembly of section .text._ZL26enclave_do_mprotect_regionPvmiPj:

0000000000000000 <_ZL26enclave_do_mprotect_regionPvmiPj>:
   0:	41 57                	push   %r15
   2:	41 56                	push   %r14
   4:	49 89 ce             	mov    %rcx,%r14
   7:	41 55                	push   %r13
   9:	41 89 d5             	mov    %edx,%r13d
   c:	41 54                	push   %r12
   e:	49 89 f4             	mov    %rsi,%r12
  11:	55                   	push   %rbp
  12:	53                   	push   %rbx
  13:	48 89 fb             	mov    %rdi,%rbx
  16:	48 83 ec 38          	sub    $0x38,%rsp
  1a:	64 48 8b 04 25 28 00 	mov    %fs:0x28,%rax
  21:	00 00 
  23:	48 89 44 24 28       	mov    %rax,0x28(%rsp)
  28:	31 c0                	xor    %eax,%eax
  2a:	e8 00 00 00 00       	call   2f <_ZL26enclave_do_mprotect_regionPvmiPj+0x2f>
  2f:	48 89 44 24 18       	mov    %rax,0x18(%rsp)
  34:	48 85 c0             	test   %rax,%rax
  37:	0f 84 9b 01 00 00    	je     1d8 <_ZL26enclave_do_mprotect_regionPvmiPj+0x1d8>
  3d:	83 3d 00 00 00 00 01 	cmpl   $0x1,0x0(%rip)        # 44 <_ZL26enclave_do_mprotect_regionPvmiPj+0x44>
  44:	41 ba ff ff ff ff    	mov    $0xffffffff,%r10d
  4a:	0f 84 a0 01 00 00    	je     1f0 <_ZL26enclave_do_mprotect_regionPvmiPj+0x1f0>
  50:	48 8b 05 00 00 00 00 	mov    0x0(%rip),%rax        # 57 <_ZL26enclave_do_mprotect_regionPvmiPj+0x57>
  57:	48 85 c0             	test   %rax,%rax
  5a:	0f 84 a0 01 00 00    	je     200 <_ZL26enclave_do_mprotect_regionPvmiPj+0x200>
  60:	48 8d 0d 00 00 00 00 	lea    0x0(%rip),%rcx        # 67 <_ZL26enclave_do_mprotect_regionPvmiPj+0x67>
  67:	48 8b 54 24 18       	mov    0x18(%rsp),%rdx
  6c:	48 89 cd             	mov    %rcx,%rbp
  6f:	eb 13                	jmp    84 <_ZL26enclave_do_mprotect_regionPvmiPj+0x84>
  71:	0f 1f 80 00 00 00 00 	nopl   0x0(%rax)
  78:	48 89 c5             	mov    %rax,%rbp
  7b:	48 8b 40 10          	mov    0x10(%rax),%rax
  7f:	48 85 c0             	test   %rax,%rax
  82:	74 0f                	je     93 <_ZL26enclave_do_mprotect_regionPvmiPj+0x93>
  84:	48 39 50 20          	cmp    %rdx,0x20(%rax)
  88:	73 ee                	jae    78 <_ZL26enclave_do_mprotect_regionPvmiPj+0x78>
  8a:	48 8b 40 18          	mov    0x18(%rax),%rax
  8e:	48 85 c0             	test   %rax,%rax
  91:	75 f1                	jne    84 <_ZL26enclave_do_mprotect_regionPvmiPj+0x84>
  93:	48 39 cd             	cmp    %rcx,%rbp
  96:	74 06                	je     9e <_ZL26enclave_do_mprotect_regionPvmiPj+0x9e>
  98:	48 39 55 20          	cmp    %rdx,0x20(%rbp)
  9c:	76 37                	jbe    d5 <_ZL26enclave_do_mprotect_regionPvmiPj+0xd5>
  9e:	48 8b 15 00 00 00 00 	mov    0x0(%rip),%rdx        # a5 <_ZL26enclave_do_mprotect_regionPvmiPj+0xa5>
  a5:	48 8d 44 24 18       	lea    0x18(%rsp),%rax
  aa:	48 89 ee             	mov    %rbp,%rsi
  ad:	48 8d 4c 24 20       	lea    0x20(%rsp),%rcx
  b2:	4c 8d 44 24 17       	lea    0x17(%rsp),%r8
  b7:	48 8d 3d 00 00 00 00 	lea    0x0(%rip),%rdi        # be <_ZL26enclave_do_mprotect_regionPvmiPj+0xbe>
  be:	44 89 54 24 0c       	mov    %r10d,0xc(%rsp)
  c3:	48 89 44 24 20       	mov    %rax,0x20(%rsp)
  c8:	e8 00 00 00 00       	call   cd <_ZL26enclave_do_mprotect_regionPvmiPj+0xcd>
  cd:	44 8b 54 24 0c       	mov    0xc(%rsp),%r10d
  d2:	48 89 c5             	mov    %rax,%rbp
  d5:	48 8b 7d 28          	mov    0x28(%rbp),%rdi
  d9:	4d 85 e4             	test   %r12,%r12
  dc:	74 62                	je     140 <_ZL26enclave_do_mprotect_regionPvmiPj+0x140>
  de:	48 8b 75 30          	mov    0x30(%rbp),%rsi
  e2:	8b 55 38             	mov    0x38(%rbp),%edx
  e5:	48 8d 04 37          	lea    (%rdi,%rsi,1),%rax
  e9:	48 39 c3             	cmp    %rax,%rbx
  ec:	41 0f 95 c7          	setne  %r15b
  f0:	44 39 ea             	cmp    %r13d,%edx
  f3:	0f 95 c0             	setne  %al
  f6:	41 08 c7             	or     %al,%r15b
  f9:	0f 84 21 01 00 00    	je     220 <_ZL26enclave_do_mprotect_regionPvmiPj+0x220>
  ff:	48 85 f6             	test   %rsi,%rsi
 102:	75 7c                	jne    180 <_ZL26enclave_do_mprotect_regionPvmiPj+0x180>
 104:	48 89 5d 28          	mov    %rbx,0x28(%rbp)
 108:	4c 89 65 30          	mov    %r12,0x30(%rbp)
 10c:	44 89 6d 38          	mov    %r13d,0x38(%rbp)
 110:	48 8b 44 24 28       	mov    0x28(%rsp),%rax
 115:	64 48 33 04 25 28 00 	xor    %fs:0x28,%rax
 11c:	00 00 
 11e:	0f 85 0e 01 00 00    	jne    232 <_ZL26enclave_do_mprotect_regionPvmiPj+0x232>
 124:	48 83 c4 38          	add    $0x38,%rsp
 128:	44 89 f8             	mov    %r15d,%eax
 12b:	5b                   	pop    %rbx
 12c:	5d                   	pop    %rbp
 12d:	41 5c                	pop    %r12
 12f:	41 5d                	pop    %r13
 131:	41 5e                	pop    %r14
 133:	41 5f                	pop    %r15
 135:	c3                   	ret    
 136:	66 2e 0f 1f 84 00 00 	cs nopw 0x0(%rax,%rax,1)
 13d:	00 00 00 
 140:	41 bf 01 00 00 00    	mov    $0x1,%r15d
 146:	48 85 ff             	test   %rdi,%rdi
 149:	74 c5                	je     110 <_ZL26enclave_do_mprotect_regionPvmiPj+0x110>
 14b:	8b 55 38             	mov    0x38(%rbp),%edx
 14e:	48 8b 75 30          	mov    0x30(%rbp),%rsi
 152:	41 83 fa ff          	cmp    $0xffffffff,%r10d
 156:	74 70                	je     1c8 <_ZL26enclave_do_mprotect_regionPvmiPj+0x1c8>
 158:	45 31 c9             	xor    %r9d,%r9d
 15b:	45 89 d0             	mov    %r10d,%r8d
 15e:	b9 11 00 00 00       	mov    $0x11,%ecx
 163:	e8 00 00 00 00       	call   168 <_ZL26enclave_do_mprotect_regionPvmiPj+0x168>
 168:	48 83 f8 ff          	cmp    $0xffffffffffffffff,%rax
 16c:	74 3a                	je     1a8 <_ZL26enclave_do_mprotect_regionPvmiPj+0x1a8>
 16e:	48 c7 45 28 00 00 00 	movq   $0x0,0x28(%rbp)
 175:	00 
 176:	41 bf 01 00 00 00    	mov    $0x1,%r15d
 17c:	eb 92                	jmp    110 <_ZL26enclave_do_mprotect_regionPvmiPj+0x110>
 17e:	66 90                	xchg   %ax,%ax
 180:	41 83 fa ff          	cmp    $0xffffffff,%r10d
 184:	0f 84 86 00 00 00    	je     210 <_ZL26enclave_do_mprotect_regionPvmiPj+0x210>
 18a:	45 31 c9             	xor    %r9d,%r9d
 18d:	45 89 d0             	mov    %r10d,%r8d
 190:	b9 11 00 00 00       	mov    $0x11,%ecx
 195:	e8 00 00 00 00       	call   19a <_ZL26enclave_do_mprotect_regionPvmiPj+0x19a>
 19a:	48 83 f8 ff          	cmp    $0xffffffffffffffff,%rax
 19e:	0f 85 60 ff ff ff    	jne    104 <_ZL26enclave_do_mprotect_regionPvmiPj+0x104>
 1a4:	0f 1f 40 00          	nopl   0x0(%rax)
 1a8:	4d 85 f6             	test   %r14,%r14
 1ab:	74 37                	je     1e4 <_ZL26enclave_do_mprotect_regionPvmiPj+0x1e4>
 1ad:	e8 00 00 00 00       	call   1b2 <_ZL26enclave_do_mprotect_regionPvmiPj+0x1b2>
 1b2:	45 31 ff             	xor    %r15d,%r15d
 1b5:	8b 38                	mov    (%rax),%edi
 1b7:	e8 00 00 00 00       	call   1bc <_ZL26enclave_do_mprotect_regionPvmiPj+0x1bc>
 1bc:	41 89 06             	mov    %eax,(%r14)
 1bf:	e9 4c ff ff ff       	jmp    110 <_ZL26enclave_do_mprotect_regionPvmiPj+0x110>
 1c4:	0f 1f 40 00          	nopl   0x0(%rax)
 1c8:	e8 00 00 00 00       	call   1cd <_ZL26enclave_do_mprotect_regionPvmiPj+0x1cd>
 1cd:	85 c0                	test   %eax,%eax
 1cf:	74 9d                	je     16e <_ZL26enclave_do_mprotect_regionPvmiPj+0x16e>
 1d1:	eb d5                	jmp    1a8 <_ZL26enclave_do_mprotect_regionPvmiPj+0x1a8>
 1d3:	0f 1f 44 00 00       	nopl   0x0(%rax,%rax,1)
 1d8:	4d 85 f6             	test   %r14,%r14
 1db:	74 07                	je     1e4 <_ZL26enclave_do_mprotect_regionPvmiPj+0x1e4>
 1dd:	41 c7 06 07 00 00 00 	movl   $0x7,(%r14)
 1e4:	45 31 ff             	xor    %r15d,%r15d
 1e7:	e9 24 ff ff ff       	jmp    110 <_ZL26enclave_do_mprotect_regionPvmiPj+0x110>
 1ec:	0f 1f 40 00          	nopl   0x0(%rax)
 1f0:	48 89 df             	mov    %rbx,%rdi
 1f3:	e8 00 00 00 00       	call   1f8 <_ZL26enclave_do_mprotect_regionPvmiPj+0x1f8>
 1f8:	41 89 c2             	mov    %eax,%r10d
 1fb:	e9 50 fe ff ff       	jmp    50 <_ZL26enclave_do_mprotect_regionPvmiPj+0x50>
 200:	48 8d 2d 00 00 00 00 	lea    0x0(%rip),%rbp        # 207 <_ZL26enclave_do_mprotect_regionPvmiPj+0x207>
 207:	e9 92 fe ff ff       	jmp    9e <_ZL26enclave_do_mprotect_regionPvmiPj+0x9e>
 20c:	0f 1f 40 00          	nopl   0x0(%rax)
 210:	e8 00 00 00 00       	call   215 <_ZL26enclave_do_mprotect_regionPvmiPj+0x215>
 215:	85 c0                	test   %eax,%eax
 217:	0f 84 e7 fe ff ff    	je     104 <_ZL26enclave_do_mprotect_regionPvmiPj+0x104>
 21d:	eb 89                	jmp    1a8 <_ZL26enclave_do_mprotect_regionPvmiPj+0x1a8>
 21f:	90                   	nop
 220:	4c 01 e6             	add    %r12,%rsi
 223:	41 bf 01 00 00 00    	mov    $0x1,%r15d
 229:	48 89 75 30          	mov    %rsi,0x30(%rbp)
 22d:	e9 de fe ff ff       	jmp    110 <_ZL26enclave_do_mprotect_regionPvmiPj+0x110>
 232:	e8 00 00 00 00       	call   237 <.LC11+0x211>

Disassembly of section .text.enclave_load_data:

0000000000000000 <enclave_load_data>:
   0:	f3 0f 1e fa          	endbr64 
   4:	55                   	push   %rbp
   5:	48 89 e5             	mov    %rsp,%rbp
   8:	41 57                	push   %r15
   a:	41 56                	push   %r14
   c:	41 55                	push   %r13
   e:	41 54                	push   %r12
  10:	53                   	push   %rbx
  11:	48 81 e4 00 f0 ff ff 	and    $0xfffffffffffff000,%rsp
  18:	48 81 ec 00 10 00 00 	sub    $0x1000,%rsp
  1f:	48 83 0c 24 00       	orq    $0x0,(%rsp)
  24:	48 81 ec 00 10 00 00 	sub    $0x1000,%rsp
  2b:	48 83 0c 24 00       	orq    $0x0,(%rsp)
  30:	48 81 ec 00 10 00 00 	sub    $0x1000,%rsp
  37:	48 83 0c 24 00       	orq    $0x0,(%rsp)
  3c:	48 89 b4 24 48 0f 00 	mov    %rsi,0xf48(%rsp)
  43:	00 
  44:	4c 89 c3             	mov    %r8,%rbx
  47:	64 48 8b 04 25 28 00 	mov    %fs:0x28,%rax
  4e:	00 00 
  50:	48 89 84 24 f8 2f 00 	mov    %rax,0x2ff8(%rsp)
  57:	00 
  58:	31 c0                	xor    %eax,%eax
  5a:	48 85 ff             	test   %rdi,%rdi
  5d:	74 09                	je     68 <enclave_load_data+0x68>
  5f:	48 81 fe ff 0f 00 00 	cmp    $0xfff,%rsi
  66:	77 38                	ja     a0 <enclave_load_data+0xa0>
  68:	48 85 db             	test   %rbx,%rbx
  6b:	74 06                	je     73 <enclave_load_data+0x73>
  6d:	c7 03 09 00 00 00    	movl   $0x9,(%rbx)
  73:	45 31 ff             	xor    %r15d,%r15d
  76:	48 8b 84 24 f8 2f 00 	mov    0x2ff8(%rsp),%rax
  7d:	00 
  7e:	64 48 33 04 25 28 00 	xor    %fs:0x28,%rax
  85:	00 00 
  87:	0f 85 07 04 00 00    	jne    494 <enclave_load_data+0x494>
  8d:	48 8d 65 d8          	lea    -0x28(%rbp),%rsp
  91:	4c 89 f8             	mov    %r15,%rax
  94:	5b                   	pop    %rbx
  95:	41 5c                	pop    %r12
  97:	41 5d                	pop    %r13
  99:	41 5e                	pop    %r14
  9b:	41 5f                	pop    %r15
  9d:	5d                   	pop    %rbp
  9e:	c3                   	ret    
  9f:	90                   	nop
  a0:	48 09 fe             	or     %rdi,%rsi
  a3:	49 89 fd             	mov    %rdi,%r13
  a6:	49 89 f0             	mov    %rsi,%r8
  a9:	41 81 e0 ff 0f 00 00 	and    $0xfff,%r8d
  b0:	4d 89 c7             	mov    %r8,%r15
  b3:	75 b3                	jne    68 <enclave_load_data+0x68>
  b5:	49 89 d4             	mov    %rdx,%r12
  b8:	89 c8                	mov    %ecx,%eax
  ba:	89 ca                	mov    %ecx,%edx
  bc:	41 89 ca             	mov    %ecx,%r10d
  bf:	81 ca 00 02 00 00    	or     $0x200,%edx
  c5:	83 e0 f8             	and    $0xfffffff8,%eax
  c8:	f6 c5 01             	test   $0x1,%ch
  cb:	48 c7 84 24 f8 0f 00 	movq   $0x0,0xff8(%rsp)
  d2:	00 00 00 00 00 
  d7:	48 0f 44 c2          	cmove  %rdx,%rax
  db:	66 0f ef c0          	pxor   %xmm0,%xmm0
  df:	48 8b 94 24 48 0f 00 	mov    0xf48(%rsp),%rdx
  e6:	00 
  e7:	48 c7 84 24 80 0f 00 	movq   $0x0,0xf80(%rsp)
  ee:	00 00 00 00 00 
  f3:	0f 11 84 24 c8 0f 00 	movups %xmm0,0xfc8(%rsp)
  fa:	00 
  fb:	25 ff ef ff ff       	and    $0xffffefff,%eax
 100:	48 c1 ea 0c          	shr    $0xc,%rdx
 104:	83 3d 00 00 00 00 01 	cmpl   $0x1,0x0(%rip)        # 10b <enclave_load_data+0x10b>
 10b:	0f 11 84 24 d8 0f 00 	movups %xmm0,0xfd8(%rsp)
 112:	00 
 113:	48 89 84 24 c0 0f 00 	mov    %rax,0xfc0(%rsp)
 11a:	00 
 11b:	0f 11 84 24 e8 0f 00 	movups %xmm0,0xfe8(%rsp)
 122:	00 
 123:	0f 29 84 24 70 0f 00 	movaps %xmm0,0xf70(%rsp)
 12a:	00 
 12b:	0f 84 47 01 00 00    	je     278 <enclave_load_data+0x278>
 131:	4d 89 e6             	mov    %r12,%r14
 134:	4d 85 e4             	test   %r12,%r12
 137:	0f 84 5b 02 00 00    	je     398 <enclave_load_data+0x398>
 13d:	48 8d 84 24 c0 0f 00 	lea    0xfc0(%rsp),%rax
 144:	00 
 145:	41 81 e2 00 10 00 00 	and    $0x1000,%r10d
 14c:	48 c1 e2 0c          	shl    $0xc,%rdx
 150:	48 89 84 24 60 0f 00 	mov    %rax,0xf60(%rsp)
 157:	00 
 158:	48 8d 84 24 90 0f 00 	lea    0xf90(%rsp),%rax
 15f:	00 
 160:	44 89 94 24 68 0f 00 	mov    %r10d,0xf68(%rsp)
 167:	00 
 168:	48 89 94 24 50 0f 00 	mov    %rdx,0xf50(%rsp)
 16f:	00 
 170:	48 89 84 24 58 0f 00 	mov    %rax,0xf58(%rsp)
 177:	00 
 178:	0f 1f 84 00 00 00 00 	nopl   0x0(%rax,%rax,1)
 17f:	00 
 180:	4b 8d 44 3d 00       	lea    0x0(%r13,%r15,1),%rax
 185:	4d 85 e4             	test   %r12,%r12
 188:	be 01 a4 1a 40       	mov    $0x401aa401,%esi
 18d:	8b 94 24 68 0f 00 00 	mov    0xf68(%rsp),%edx
 194:	48 89 84 24 90 0f 00 	mov    %rax,0xf90(%rsp)
 19b:	00 
 19c:	4b 8d 04 3e          	lea    (%r14,%r15,1),%rax
 1a0:	8b 3d 00 00 00 00    	mov    0x0(%rip),%edi        # 1a6 <enclave_load_data+0x1a6>
 1a6:	49 0f 44 c6          	cmove  %r14,%rax
 1aa:	48 89 84 24 98 0f 00 	mov    %rax,0xf98(%rsp)
 1b1:	00 
 1b2:	48 8b 84 24 60 0f 00 	mov    0xf60(%rsp),%rax
 1b9:	00 
 1ba:	48 89 84 24 a0 0f 00 	mov    %rax,0xfa0(%rsp)
 1c1:	00 
 1c2:	31 c0                	xor    %eax,%eax
 1c4:	85 d2                	test   %edx,%edx
 1c6:	48 8b 94 24 58 0f 00 	mov    0xf58(%rsp),%rdx
 1cd:	00 
 1ce:	0f 95 c0             	setne  %al
 1d1:	83 e8 01             	sub    $0x1,%eax
 1d4:	66 89 84 24 a8 0f 00 	mov    %ax,0xfa8(%rsp)
 1db:	00 
 1dc:	31 c0                	xor    %eax,%eax
 1de:	e8 00 00 00 00       	call   1e3 <enclave_load_data+0x1e3>
 1e3:	85 c0                	test   %eax,%eax
 1e5:	75 61                	jne    248 <enclave_load_data+0x248>
 1e7:	49 81 c7 00 10 00 00 	add    $0x1000,%r15
 1ee:	4c 39 bc 24 50 0f 00 	cmp    %r15,0xf50(%rsp)
 1f5:	00 
 1f6:	75 88                	jne    180 <enclave_load_data+0x180>
 1f8:	48 8b 84 24 c0 0f 00 	mov    0xfc0(%rsp),%rax
 1ff:	00 
 200:	4c 8b bc 24 48 0f 00 	mov    0xf48(%rsp),%r15
 207:	00 
 208:	48 89 d9             	mov    %rbx,%rcx
 20b:	4c 89 ef             	mov    %r13,%rdi
 20e:	89 c2                	mov    %eax,%edx
 210:	4c 89 fe             	mov    %r15,%rsi
 213:	83 e2 07             	and    $0x7,%edx
 216:	f6 c4 01             	test   $0x1,%ah
 219:	b8 03 00 00 00       	mov    $0x3,%eax
 21e:	0f 45 d0             	cmovne %eax,%edx
 221:	e8 00 00 00 00       	call   226 <enclave_load_data+0x226>
 226:	84 c0                	test   %al,%al
 228:	0f 84 45 fe ff ff    	je     73 <enclave_load_data+0x73>
 22e:	48 85 db             	test   %rbx,%rbx
 231:	0f 84 3f fe ff ff    	je     76 <enclave_load_data+0x76>
 237:	c7 03 00 00 00 00    	movl   $0x0,(%rbx)
 23d:	e9 34 fe ff ff       	jmp    76 <enclave_load_data+0x76>
 242:	66 0f 1f 44 00 00    	nopw   0x0(%rax,%rax,1)
 248:	89 84 24 68 0f 00 00 	mov    %eax,0xf68(%rsp)
 24f:	48 85 db             	test   %rbx,%rbx
 252:	0f 84 1e fe ff ff    	je     76 <enclave_load_data+0x76>
 258:	e8 00 00 00 00       	call   25d <enclave_load_data+0x25d>
 25d:	8b bc 24 68 0f 00 00 	mov    0xf68(%rsp),%edi
 264:	8b 30                	mov    (%rax),%esi
 266:	e8 00 00 00 00       	call   26b <enclave_load_data+0x26b>
 26b:	89 03                	mov    %eax,(%rbx)
 26d:	e9 04 fe ff ff       	jmp    76 <enclave_load_data+0x76>
 272:	66 0f 1f 44 00 00    	nopw   0x0(%rax,%rax,1)
 278:	89 8c 24 68 0f 00 00 	mov    %ecx,0xf68(%rsp)
 27f:	e8 00 00 00 00       	call   284 <enclave_load_data+0x284>
 284:	44 8b 94 24 68 0f 00 	mov    0xf68(%rsp),%r10d
 28b:	00 
 28c:	83 f8 ff             	cmp    $0xffffffff,%eax
 28f:	41 89 c6             	mov    %eax,%r14d
 292:	0f 84 20 01 00 00    	je     3b8 <enclave_load_data+0x3b8>
 298:	4c 89 ef             	mov    %r13,%rdi
 29b:	44 89 94 24 68 0f 00 	mov    %r10d,0xf68(%rsp)
 2a2:	00 
 2a3:	e8 00 00 00 00       	call   2a8 <enclave_load_data+0x2a8>
 2a8:	48 85 c0             	test   %rax,%rax
 2ab:	0f 84 07 01 00 00    	je     3b8 <enclave_load_data+0x3b8>
 2b1:	48 8d b4 24 70 0f 00 	lea    0xf70(%rsp),%rsi
 2b8:	00 
 2b9:	48 89 c7             	mov    %rax,%rdi
 2bc:	48 89 84 24 60 0f 00 	mov    %rax,0xf60(%rsp)
 2c3:	00 
 2c4:	e8 00 00 00 00       	call   2c9 <enclave_load_data+0x2c9>
 2c9:	48 8b 94 24 60 0f 00 	mov    0xf60(%rsp),%rdx
 2d0:	00 
 2d1:	44 8b 94 24 68 0f 00 	mov    0xf68(%rsp),%r10d
 2d8:	00 
 2d9:	84 c0                	test   %al,%al
 2db:	48 89 d1             	mov    %rdx,%rcx
 2de:	48 0f 45 8c 24 78 0f 	cmovne 0xf78(%rsp),%rcx
 2e5:	00 00 
 2e7:	4d 85 e4             	test   %r12,%r12
 2ea:	0f 84 0d 01 00 00    	je     3fd <enclave_load_data+0x3fd>
 2f0:	48 c7 84 24 b0 0f 00 	movq   $0x0,0xfb0(%rsp)
 2f7:	00 00 00 00 00 
 2fc:	4c 89 a4 24 90 0f 00 	mov    %r12,0xf90(%rsp)
 303:	00 
 304:	4c 89 a4 24 68 0f 00 	mov    %r12,0xf68(%rsp)
 30b:	00 
 30c:	4c 89 e8             	mov    %r13,%rax
 30f:	48 29 c8             	sub    %rcx,%rax
 312:	41 81 e2 00 10 00 00 	and    $0x1000,%r10d
 319:	48 89 84 24 98 0f 00 	mov    %rax,0xf98(%rsp)
 320:	00 
 321:	48 8b 84 24 48 0f 00 	mov    0xf48(%rsp),%rax
 328:	00 
 329:	48 89 84 24 a0 0f 00 	mov    %rax,0xfa0(%rsp)
 330:	00 
 331:	48 8d 84 24 c0 0f 00 	lea    0xfc0(%rsp),%rax
 338:	00 
 339:	48 89 84 24 a8 0f 00 	mov    %rax,0xfa8(%rsp)
 340:	00 
 341:	75 0c                	jne    34f <enclave_load_data+0x34f>
 343:	48 c7 84 24 b0 0f 00 	movq   $0x1,0xfb0(%rsp)
 34a:	00 01 00 00 00 
 34f:	44 89 f7             	mov    %r14d,%edi
 352:	48 8d 94 24 90 0f 00 	lea    0xf90(%rsp),%rdx
 359:	00 
 35a:	be 01 a4 30 c0       	mov    $0xc030a401,%esi
 35f:	31 c0                	xor    %eax,%eax
 361:	48 c7 84 24 b8 0f 00 	movq   $0x0,0xfb8(%rsp)
 368:	00 00 00 00 00 
 36d:	e8 00 00 00 00       	call   372 <enclave_load_data+0x372>
 372:	41 89 c6             	mov    %eax,%r14d
 375:	85 c0                	test   %eax,%eax
 377:	75 53                	jne    3cc <enclave_load_data+0x3cc>
 379:	4d 85 e4             	test   %r12,%r12
 37c:	0f 85 76 fe ff ff    	jne    1f8 <enclave_load_data+0x1f8>
 382:	48 8b bc 24 68 0f 00 	mov    0xf68(%rsp),%rdi
 389:	00 
 38a:	e8 00 00 00 00       	call   38f <enclave_load_data+0x38f>
 38f:	e9 64 fe ff ff       	jmp    1f8 <enclave_load_data+0x1f8>
 394:	0f 1f 40 00          	nopl   0x0(%rax)
 398:	4c 8d b4 24 00 10 00 	lea    0x1000(%rsp),%r14
 39f:	00 
 3a0:	b9 00 02 00 00       	mov    $0x200,%ecx
 3a5:	4c 89 e0             	mov    %r12,%rax
 3a8:	4c 89 f7             	mov    %r14,%rdi
 3ab:	f3 48 ab             	rep stos %rax,%es:(%rdi)
 3ae:	e9 8a fd ff ff       	jmp    13d <enclave_load_data+0x13d>
 3b3:	0f 1f 44 00 00       	nopl   0x0(%rax,%rax,1)
 3b8:	48 85 db             	test   %rbx,%rbx
 3bb:	0f 84 b5 fc ff ff    	je     76 <enclave_load_data+0x76>
 3c1:	c7 03 0d 00 00 00    	movl   $0xd,(%rbx)
 3c7:	e9 aa fc ff ff       	jmp    76 <enclave_load_data+0x76>
 3cc:	48 85 db             	test   %rbx,%rbx
 3cf:	74 11                	je     3e2 <enclave_load_data+0x3e2>
 3d1:	e8 00 00 00 00       	call   3d6 <enclave_load_data+0x3d6>
 3d6:	44 89 f7             	mov    %r14d,%edi
 3d9:	8b 30                	mov    (%rax),%esi
 3db:	e8 00 00 00 00       	call   3e0 <enclave_load_data+0x3e0>
 3e0:	89 03                	mov    %eax,(%rbx)
 3e2:	4d 85 e4             	test   %r12,%r12
 3e5:	0f 85 8b fc ff ff    	jne    76 <enclave_load_data+0x76>
 3eb:	48 8b bc 24 68 0f 00 	mov    0xf68(%rsp),%rdi
 3f2:	00 
 3f3:	e8 00 00 00 00       	call   3f8 <enclave_load_data+0x3f8>
 3f8:	e9 79 fc ff ff       	jmp    76 <enclave_load_data+0x76>
 3fd:	48 8b b4 24 48 0f 00 	mov    0xf48(%rsp),%rsi
 404:	00 
 405:	bf 00 10 00 00       	mov    $0x1000,%edi
 40a:	44 89 94 24 58 0f 00 	mov    %r10d,0xf58(%rsp)
 411:	00 
 412:	48 89 8c 24 60 0f 00 	mov    %rcx,0xf60(%rsp)
 419:	00 
 41a:	e8 00 00 00 00       	call   41f <enclave_load_data+0x41f>
 41f:	48 8b 8c 24 60 0f 00 	mov    0xf60(%rsp),%rcx
 426:	00 
 427:	44 8b 94 24 58 0f 00 	mov    0xf58(%rsp),%r10d
 42e:	00 
 42f:	48 85 c0             	test   %rax,%rax
 432:	48 89 84 24 68 0f 00 	mov    %rax,0xf68(%rsp)
 439:	00 
 43a:	74 5d                	je     499 <enclave_load_data+0x499>
 43c:	48 8b 94 24 48 0f 00 	mov    0xf48(%rsp),%rdx
 443:	00 
 444:	48 8b bc 24 68 0f 00 	mov    0xf68(%rsp),%rdi
 44b:	00 
 44c:	31 f6                	xor    %esi,%esi
 44e:	44 89 94 24 58 0f 00 	mov    %r10d,0xf58(%rsp)
 455:	00 
 456:	48 89 8c 24 60 0f 00 	mov    %rcx,0xf60(%rsp)
 45d:	00 
 45e:	e8 00 00 00 00       	call   463 <enclave_load_data+0x463>
 463:	48 8b 84 24 68 0f 00 	mov    0xf68(%rsp),%rax
 46a:	00 
 46b:	48 c7 84 24 b0 0f 00 	movq   $0x0,0xfb0(%rsp)
 472:	00 00 00 00 00 
 477:	44 8b 94 24 58 0f 00 	mov    0xf58(%rsp),%r10d
 47e:	00 
 47f:	48 8b 8c 24 60 0f 00 	mov    0xf60(%rsp),%rcx
 486:	00 
 487:	48 89 84 24 90 0f 00 	mov    %rax,0xf90(%rsp)
 48e:	00 
 48f:	e9 78 fe ff ff       	jmp    30c <enclave_load_data+0x30c>
 494:	e8 00 00 00 00       	call   499 <enclave_load_data+0x499>
 499:	48 85 db             	test   %rbx,%rbx
 49c:	0f 84 d4 fb ff ff    	je     76 <enclave_load_data+0x76>
 4a2:	c7 03 0a 00 00 00    	movl   $0xa,(%rbx)
 4a8:	e9 c9 fb ff ff       	jmp    76 <enclave_load_data+0x76>

Disassembly of section .text.unlikely.enclave_create_ex:

0000000000000000 <enclave_create_ex.cold>:
   0:	48 8d 3d 00 00 00 00 	lea    0x0(%rip),%rdi        # 7 <enclave_create_ex.cold+0x7>
   7:	e8 00 00 00 00       	call   c <enclave_create_ex.cold+0xc>
   c:	48 89 ef             	mov    %rbp,%rdi
   f:	e8 00 00 00 00       	call   14 <enclave_create_ex.cold+0x14>
  14:	48 8d 3d 00 00 00 00 	lea    0x0(%rip),%rdi        # 1b <enclave_create_ex.cold+0x1b>
  1b:	e8 00 00 00 00       	call   20 <enclave_create_ex.cold+0x20>
  20:	48 89 ef             	mov    %rbp,%rdi
  23:	e8 00 00 00 00       	call   28 <enclave_create_ex.cold+0x28>
  28:	48 8d 3d 00 00 00 00 	lea    0x0(%rip),%rdi        # 2f <enclave_create_ex.cold+0x2f>
  2f:	e8 00 00 00 00       	call   34 <enclave_create_ex.cold+0x34>
  34:	48 89 ef             	mov    %rbp,%rdi
  37:	e8 00 00 00 00       	call   3c <.LC11+0x16>

Disassembly of section .text.enclave_create_ex:

0000000000000000 <enclave_create_ex>:
   0:	f3 0f 1e fa          	endbr64 
   4:	41 57                	push   %r15
   6:	83 e9 01             	sub    $0x1,%ecx
   9:	41 56                	push   %r14
   b:	41 55                	push   %r13
   d:	41 54                	push   %r12
   f:	55                   	push   %rbp
  10:	48 89 f5             	mov    %rsi,%rbp
  13:	53                   	push   %rbx
  14:	48 83 ec 58          	sub    $0x58,%rsp
  18:	64 48 8b 04 25 28 00 	mov    %fs:0x28,%rax
  1f:	00 00 
  21:	48 89 44 24 48       	mov    %rax,0x48(%rsp)
  26:	31 c0                	xor    %eax,%eax
  28:	8b b4 24 90 00 00 00 	mov    0x90(%rsp),%esi
  2f:	c7 44 24 1c ff ff ff 	movl   $0xffffffff,0x1c(%rsp)
  36:	ff 
  37:	48 8b 94 24 98 00 00 	mov    0x98(%rsp),%rdx
  3e:	00 
  3f:	4c 8b ac 24 a0 00 00 	mov    0xa0(%rsp),%r13
  46:	00 
  47:	48 c7 44 24 20 00 00 	movq   $0x0,0x20(%rsp)
  4e:	00 00 
  50:	83 f9 01             	cmp    $0x1,%ecx
  53:	0f 87 d7 00 00 00    	ja     130 <enclave_create_ex+0x130>
  59:	4c 89 c3             	mov    %r8,%rbx
  5c:	4d 85 c0             	test   %r8,%r8
  5f:	0f 84 cb 00 00 00    	je     130 <enclave_create_ex+0x130>
  65:	49 81 f9 00 10 00 00 	cmp    $0x1000,%r9
  6c:	0f 85 be 00 00 00    	jne    130 <enclave_create_ex+0x130>
  72:	49 89 fe             	mov    %rdi,%r14
  75:	48 85 d2             	test   %rdx,%rdx
  78:	0f 84 32 01 00 00    	je     1b0 <enclave_create_ex+0x1b0>
  7e:	40 f6 c6 01          	test   $0x1,%sil
  82:	75 0a                	jne    8e <enclave_create_ex+0x8e>
  84:	48 83 3a 00          	cmpq   $0x0,(%rdx)
  88:	0f 85 a2 00 00 00    	jne    130 <enclave_create_ex+0x130>
  8e:	48 8d 42 08          	lea    0x8(%rdx),%rax
  92:	48 8d 8a 00 01 00 00 	lea    0x100(%rdx),%rcx
  99:	48 83 38 00          	cmpq   $0x0,(%rax)
  9d:	0f 85 8d 00 00 00    	jne    130 <enclave_create_ex+0x130>
  a3:	48 83 c0 08          	add    $0x8,%rax
  a7:	48 39 c1             	cmp    %rax,%rcx
  aa:	75 ed                	jne    99 <enclave_create_ex+0x99>
  ac:	f7 c6 fe ff ff ff    	test   $0xfffffffe,%esi
  b2:	75 7c                	jne    130 <enclave_create_ex+0x130>
  b4:	4c 8b 22             	mov    (%rdx),%r12
  b7:	4d 85 e4             	test   %r12,%r12
  ba:	0f 84 20 02 00 00    	je     2e0 <enclave_create_ex+0x2e0>
  c0:	40 f6 c6 01          	test   $0x1,%sil
  c4:	0f 84 16 02 00 00    	je     2e0 <enclave_create_ex+0x2e0>
  ca:	49 8b 44 24 10       	mov    0x10(%r12),%rax
  cf:	48 85 c0             	test   %rax,%rax
  d2:	74 5c                	je     130 <enclave_create_ex+0x130>
  d4:	a9 ff 0f 00 00       	test   $0xfff,%eax
  d9:	75 55                	jne    130 <enclave_create_ex+0x130>
  db:	49 8b 54 24 08       	mov    0x8(%r12),%rdx
  e0:	f7 c2 ff 0f 00 00    	test   $0xfff,%edx
  e6:	75 48                	jne    130 <enclave_create_ex+0x130>
  e8:	49 8b 3c 24          	mov    (%r12),%rdi
  ec:	48 39 fa             	cmp    %rdi,%rdx
  ef:	77 3f                	ja     130 <enclave_create_ex+0x130>
  f1:	48 89 c6             	mov    %rax,%rsi
  f4:	48 8d 48 ff          	lea    -0x1(%rax),%rcx
  f8:	48 09 d6             	or     %rdx,%rsi
  fb:	48 21 f1             	and    %rsi,%rcx
  fe:	48 89 fe             	mov    %rdi,%rsi
 101:	81 e6 ff 0f 00 00    	and    $0xfff,%esi
 107:	48 09 f1             	or     %rsi,%rcx
 10a:	75 24                	jne    130 <enclave_create_ex+0x130>
 10c:	48 39 d0             	cmp    %rdx,%rax
 10f:	48 8d 0c 10          	lea    (%rax,%rdx,1),%rcx
 113:	48 0f 42 c2          	cmovb  %rdx,%rax
 117:	48 39 c1             	cmp    %rax,%rcx
 11a:	72 14                	jb     130 <enclave_create_ex+0x130>
 11c:	48 39 cf             	cmp    %rcx,%rdi
 11f:	73 0f                	jae    130 <enclave_create_ex+0x130>
 121:	e8 00 00 00 00       	call   126 <enclave_create_ex+0x126>
 126:	48 85 c0             	test   %rax,%rax
 129:	0f 84 a6 00 00 00    	je     1d5 <enclave_create_ex+0x1d5>
 12f:	90                   	nop
 130:	4d 85 ed             	test   %r13,%r13
 133:	74 73                	je     1a8 <enclave_create_ex+0x1a8>
 135:	41 c7 45 00 09 00 00 	movl   $0x9,0x0(%r13)
 13c:	00 
 13d:	45 31 e4             	xor    %r12d,%r12d
 140:	48 8b 44 24 48       	mov    0x48(%rsp),%rax
 145:	64 48 33 04 25 28 00 	xor    %fs:0x28,%rax
 14c:	00 00 
 14e:	0f 85 98 0a 00 00    	jne    bec <enclave_create_ex+0xbec>
 154:	48 83 c4 58          	add    $0x58,%rsp
 158:	4c 89 e0             	mov    %r12,%rax
 15b:	5b                   	pop    %rbx
 15c:	5d                   	pop    %rbp
 15d:	41 5c                	pop    %r12
 15f:	41 5d                	pop    %r13
 161:	41 5e                	pop    %r14
 163:	41 5f                	pop    %r15
 165:	c3                   	ret    
 166:	66 2e 0f 1f 84 00 00 	cs nopw 0x0(%rax,%rax,1)
 16d:	00 00 00 
 170:	4d 85 ed             	test   %r13,%r13
 173:	74 13                	je     188 <enclave_create_ex+0x188>
 175:	e8 00 00 00 00       	call   17a <enclave_create_ex+0x17a>
 17a:	44 89 f7             	mov    %r14d,%edi
 17d:	8b 30                	mov    (%rax),%esi
 17f:	e8 00 00 00 00       	call   184 <enclave_create_ex+0x184>
 184:	41 89 45 00          	mov    %eax,0x0(%r13)
 188:	83 3d 00 00 00 00 01 	cmpl   $0x1,0x0(%rip)        # 18f <enclave_create_ex+0x18f>
 18f:	0f 84 81 09 00 00    	je     b16 <enclave_create_ex+0xb16>
 195:	48 8b 7c 24 20       	mov    0x20(%rsp),%rdi
 19a:	48 89 ee             	mov    %rbp,%rsi
 19d:	e8 00 00 00 00       	call   1a2 <enclave_create_ex+0x1a2>
 1a2:	66 0f 1f 44 00 00    	nopw   0x0(%rax,%rax,1)
 1a8:	45 31 e4             	xor    %r12d,%r12d
 1ab:	eb 93                	jmp    140 <enclave_create_ex+0x140>
 1ad:	0f 1f 00             	nopl   (%rax)
 1b0:	b8 01 00 00 00       	mov    $0x1,%eax
 1b5:	f7 c6 fe ff ff ff    	test   $0xfffffffe,%esi
 1bb:	0f 85 6f ff ff ff    	jne    130 <enclave_create_ex+0x130>
 1c1:	83 e6 01             	and    $0x1,%esi
 1c4:	0f 85 66 ff ff ff    	jne    130 <enclave_create_ex+0x130>
 1ca:	45 31 e4             	xor    %r12d,%r12d
 1cd:	84 c0                	test   %al,%al
 1cf:	0f 84 5b ff ff ff    	je     130 <enclave_create_ex+0x130>
 1d5:	8b 05 00 00 00 00    	mov    0x0(%rip),%eax        # 1db <enclave_create_ex+0x1db>
 1db:	85 c0                	test   %eax,%eax
 1dd:	0f 84 1d 05 00 00    	je     700 <enclave_create_ex+0x700>
 1e3:	83 f8 01             	cmp    $0x1,%eax
 1e6:	0f 84 24 07 00 00    	je     910 <enclave_create_ex+0x910>
 1ec:	44 8b 05 00 00 00 00 	mov    0x0(%rip),%r8d        # 1f3 <enclave_create_ex+0x1f3>
 1f3:	49 89 ef             	mov    %rbp,%r15
 1f6:	44 89 44 24 1c       	mov    %r8d,0x1c(%rsp)
 1fb:	45 31 c9             	xor    %r9d,%r9d
 1fe:	b9 01 00 00 00       	mov    $0x1,%ecx
 203:	4c 89 f7             	mov    %r14,%rdi
 206:	31 d2                	xor    %edx,%edx
 208:	4c 89 fe             	mov    %r15,%rsi
 20b:	e8 00 00 00 00       	call   210 <enclave_create_ex+0x210>
 210:	48 89 44 24 20       	mov    %rax,0x20(%rsp)
 215:	48 89 c7             	mov    %rax,%rdi
 218:	48 83 f8 ff          	cmp    $0xffffffffffffffff,%rax
 21c:	0f 84 be 07 00 00    	je     9e0 <enclave_create_ex+0x9e0>
 222:	4d 85 e4             	test   %r12,%r12
 225:	0f 84 75 05 00 00    	je     7a0 <enclave_create_ex+0x7a0>
 22b:	49 39 c6             	cmp    %rax,%r14
 22e:	0f 85 ac 06 00 00    	jne    8e0 <enclave_create_ex+0x8e0>
 234:	49 8b 44 24 08       	mov    0x8(%r12),%rax
 239:	48 89 43 08          	mov    %rax,0x8(%rbx)
 23d:	49 8b 44 24 10       	mov    0x10(%r12),%rax
 242:	48 89 03             	mov    %rax,(%rbx)
 245:	8b 7c 24 1c          	mov    0x1c(%rsp),%edi
 249:	48 8d 54 24 28       	lea    0x28(%rsp),%rdx
 24e:	be 00 a4 08 40       	mov    $0x4008a400,%esi
 253:	31 c0                	xor    %eax,%eax
 255:	48 89 5c 24 28       	mov    %rbx,0x28(%rsp)
 25a:	e8 00 00 00 00       	call   25f <enclave_create_ex+0x25f>
 25f:	41 89 c6             	mov    %eax,%r14d
 262:	85 c0                	test   %eax,%eax
 264:	0f 85 06 ff ff ff    	jne    170 <enclave_create_ex+0x170>
 26a:	8b 05 00 00 00 00    	mov    0x0(%rip),%eax        # 270 <enclave_create_ex+0x270>
 270:	89 c2                	mov    %eax,%edx
 272:	83 e2 fd             	and    $0xfffffffd,%edx
 275:	83 fa 01             	cmp    $0x1,%edx
 278:	75 0a                	jne    284 <enclave_create_ex+0x284>
 27a:	f6 43 30 10          	testb  $0x10,0x30(%rbx)
 27e:	0f 85 7c 05 00 00    	jne    800 <enclave_create_ex+0x800>
 284:	48 8d 3d 00 00 00 00 	lea    0x0(%rip),%rdi        # 28b <enclave_create_ex+0x28b>
 28b:	e8 00 00 00 00       	call   290 <enclave_create_ex+0x290>
 290:	83 3d 00 00 00 00 01 	cmpl   $0x1,0x0(%rip)        # 297 <enclave_create_ex+0x297>
 297:	0f 84 a3 06 00 00    	je     940 <enclave_create_ex+0x940>
 29d:	48 8b 05 00 00 00 00 	mov    0x0(%rip),%rax        # 2a4 <enclave_create_ex+0x2a4>
 2a4:	48 85 c0             	test   %rax,%rax
 2a7:	0f 84 a3 00 00 00    	je     350 <enclave_create_ex+0x350>
 2ad:	4c 8d 35 00 00 00 00 	lea    0x0(%rip),%r14        # 2b4 <enclave_create_ex+0x2b4>
 2b4:	48 8b 54 24 20       	mov    0x20(%rsp),%rdx
 2b9:	4d 89 f0             	mov    %r14,%r8
 2bc:	eb 0e                	jmp    2cc <enclave_create_ex+0x2cc>
 2be:	66 90                	xchg   %ax,%ax
 2c0:	49 89 c0             	mov    %rax,%r8
 2c3:	48 8b 40 10          	mov    0x10(%rax),%rax
 2c7:	48 85 c0             	test   %rax,%rax
 2ca:	74 24                	je     2f0 <enclave_create_ex+0x2f0>
 2cc:	48 39 50 20          	cmp    %rdx,0x20(%rax)
 2d0:	73 ee                	jae    2c0 <enclave_create_ex+0x2c0>
 2d2:	48 8b 40 18          	mov    0x18(%rax),%rax
 2d6:	eb ef                	jmp    2c7 <enclave_create_ex+0x2c7>
 2d8:	0f 1f 84 00 00 00 00 	nopl   0x0(%rax,%rax,1)
 2df:	00 
 2e0:	4d 85 e4             	test   %r12,%r12
 2e3:	0f 94 c0             	sete   %al
 2e6:	e9 d6 fe ff ff       	jmp    1c1 <enclave_create_ex+0x1c1>
 2eb:	0f 1f 44 00 00       	nopl   0x0(%rax,%rax,1)
 2f0:	4d 39 f0             	cmp    %r14,%r8
 2f3:	74 6b                	je     360 <enclave_create_ex+0x360>
 2f5:	49 39 50 20          	cmp    %rdx,0x20(%r8)
 2f9:	77 65                	ja     360 <enclave_create_ex+0x360>
 2fb:	49 89 68 28          	mov    %rbp,0x28(%r8)
 2ff:	48 8b 05 00 00 00 00 	mov    0x0(%rip),%rax        # 306 <enclave_create_ex+0x306>
 306:	f3 0f 6f 43 30       	movdqu 0x30(%rbx),%xmm0
 30b:	0f 29 04 24          	movaps %xmm0,(%rsp)
 30f:	48 85 c0             	test   %rax,%rax
 312:	0f 84 28 01 00 00    	je     440 <enclave_create_ex+0x440>
 318:	48 8d 1d 00 00 00 00 	lea    0x0(%rip),%rbx        # 31f <enclave_create_ex+0x31f>
 31f:	48 8b 54 24 20       	mov    0x20(%rsp),%rdx
 324:	48 89 dd             	mov    %rbx,%rbp
 327:	eb 17                	jmp    340 <enclave_create_ex+0x340>
 329:	0f 1f 80 00 00 00 00 	nopl   0x0(%rax)
 330:	48 89 c5             	mov    %rax,%rbp
 333:	48 8b 40 10          	mov    0x10(%rax),%rax
 337:	48 85 c0             	test   %rax,%rax
 33a:	0f 84 a0 00 00 00    	je     3e0 <enclave_create_ex+0x3e0>
 340:	48 39 50 20          	cmp    %rdx,0x20(%rax)
 344:	73 ea                	jae    330 <enclave_create_ex+0x330>
 346:	48 8b 40 18          	mov    0x18(%rax),%rax
 34a:	eb eb                	jmp    337 <enclave_create_ex+0x337>
 34c:	0f 1f 40 00          	nopl   0x0(%rax)
 350:	4c 8d 35 00 00 00 00 	lea    0x0(%rip),%r14        # 357 <enclave_create_ex+0x357>
 357:	4d 89 f0             	mov    %r14,%r8
 35a:	66 0f 1f 44 00 00    	nopw   0x0(%rax,%rax,1)
 360:	bf 30 00 00 00       	mov    $0x30,%edi
 365:	4d 89 c7             	mov    %r8,%r15
 368:	e8 00 00 00 00       	call   36d <enclave_create_ex+0x36d>
 36d:	49 89 c0             	mov    %rax,%r8
 370:	48 8b 44 24 20       	mov    0x20(%rsp),%rax
 375:	4c 89 fe             	mov    %r15,%rsi
 378:	48 8d 3d 00 00 00 00 	lea    0x0(%rip),%rdi        # 37f <enclave_create_ex+0x37f>
 37f:	49 c7 40 28 00 00 00 	movq   $0x0,0x28(%r8)
 386:	00 
 387:	49 8d 50 20          	lea    0x20(%r8),%rdx
 38b:	49 89 40 20          	mov    %rax,0x20(%r8)
 38f:	4c 89 04 24          	mov    %r8,(%rsp)
 393:	e8 00 00 00 00       	call   398 <enclave_create_ex+0x398>
 398:	4c 8b 04 24          	mov    (%rsp),%r8
 39c:	48 85 d2             	test   %rdx,%rdx
 39f:	49 89 c7             	mov    %rax,%r15
 3a2:	0f 84 48 04 00 00    	je     7f0 <enclave_create_ex+0x7f0>
 3a8:	49 39 d6             	cmp    %rdx,%r14
 3ab:	74 09                	je     3b6 <enclave_create_ex+0x3b6>
 3ad:	48 85 c0             	test   %rax,%rax
 3b0:	0f 84 10 07 00 00    	je     ac6 <enclave_create_ex+0xac6>
 3b6:	bf 01 00 00 00       	mov    $0x1,%edi
 3bb:	4c 89 c6             	mov    %r8,%rsi
 3be:	48 8d 0d 00 00 00 00 	lea    0x0(%rip),%rcx        # 3c5 <enclave_create_ex+0x3c5>
 3c5:	4c 89 04 24          	mov    %r8,(%rsp)
 3c9:	e8 00 00 00 00       	call   3ce <enclave_create_ex+0x3ce>
 3ce:	48 83 05 00 00 00 00 	addq   $0x1,0x0(%rip)        # 3d6 <enclave_create_ex+0x3d6>
 3d5:	01 
 3d6:	4c 8b 04 24          	mov    (%rsp),%r8
 3da:	e9 1c ff ff ff       	jmp    2fb <enclave_create_ex+0x2fb>
 3df:	90                   	nop
 3e0:	48 39 dd             	cmp    %rbx,%rbp
 3e3:	74 6b                	je     450 <enclave_create_ex+0x450>
 3e5:	48 39 55 20          	cmp    %rdx,0x20(%rbp)
 3e9:	77 65                	ja     450 <enclave_create_ex+0x450>
 3eb:	66 0f 6f 0c 24       	movdqa (%rsp),%xmm1
 3f0:	48 8b 15 00 00 00 00 	mov    0x0(%rip),%rdx        # 3f7 <enclave_create_ex+0x3f7>
 3f7:	0f 11 4d 28          	movups %xmm1,0x28(%rbp)
 3fb:	48 85 d2             	test   %rdx,%rdx
 3fe:	0f 84 6c 06 00 00    	je     a70 <enclave_create_ex+0xa70>
 404:	48 8d 1d 00 00 00 00 	lea    0x0(%rip),%rbx        # 40b <enclave_create_ex+0x40b>
 40b:	48 8b 4c 24 20       	mov    0x20(%rsp),%rcx
 410:	48 89 d0             	mov    %rdx,%rax
 413:	48 89 de             	mov    %rbx,%rsi
 416:	eb 18                	jmp    430 <enclave_create_ex+0x430>
 418:	0f 1f 84 00 00 00 00 	nopl   0x0(%rax,%rax,1)
 41f:	00 
 420:	48 89 c6             	mov    %rax,%rsi
 423:	48 8b 40 10          	mov    0x10(%rax),%rax
 427:	48 85 c0             	test   %rax,%rax
 42a:	0f 84 a0 00 00 00    	je     4d0 <enclave_create_ex+0x4d0>
 430:	48 39 48 20          	cmp    %rcx,0x20(%rax)
 434:	73 ea                	jae    420 <enclave_create_ex+0x420>
 436:	48 8b 40 18          	mov    0x18(%rax),%rax
 43a:	eb eb                	jmp    427 <enclave_create_ex+0x427>
 43c:	0f 1f 40 00          	nopl   0x0(%rax)
 440:	48 8d 1d 00 00 00 00 	lea    0x0(%rip),%rbx        # 447 <enclave_create_ex+0x447>
 447:	48 89 dd             	mov    %rbx,%rbp
 44a:	66 0f 1f 44 00 00    	nopw   0x0(%rax,%rax,1)
 450:	bf 38 00 00 00       	mov    $0x38,%edi
 455:	49 89 ee             	mov    %rbp,%r14
 458:	e8 00 00 00 00       	call   45d <enclave_create_ex+0x45d>
 45d:	48 89 c5             	mov    %rax,%rbp
 460:	48 8b 44 24 20       	mov    0x20(%rsp),%rax
 465:	4c 89 f6             	mov    %r14,%rsi
 468:	48 8d 3d 00 00 00 00 	lea    0x0(%rip),%rdi        # 46f <enclave_create_ex+0x46f>
 46f:	48 c7 45 28 00 00 00 	movq   $0x0,0x28(%rbp)
 476:	00 
 477:	48 8d 55 20          	lea    0x20(%rbp),%rdx
 47b:	48 89 45 20          	mov    %rax,0x20(%rbp)
 47f:	48 c7 45 30 00 00 00 	movq   $0x0,0x30(%rbp)
 486:	00 
 487:	e8 00 00 00 00       	call   48c <enclave_create_ex+0x48c>
 48c:	49 89 c6             	mov    %rax,%r14
 48f:	48 85 d2             	test   %rdx,%rdx
 492:	0f 84 48 03 00 00    	je     7e0 <enclave_create_ex+0x7e0>
 498:	48 85 c0             	test   %rax,%rax
 49b:	75 09                	jne    4a6 <enclave_create_ex+0x4a6>
 49d:	48 39 d3             	cmp    %rdx,%rbx
 4a0:	0f 85 0d 06 00 00    	jne    ab3 <enclave_create_ex+0xab3>
 4a6:	bf 01 00 00 00       	mov    $0x1,%edi
 4ab:	48 8d 0d 00 00 00 00 	lea    0x0(%rip),%rcx        # 4b2 <enclave_create_ex+0x4b2>
 4b2:	48 89 ee             	mov    %rbp,%rsi
 4b5:	e8 00 00 00 00       	call   4ba <enclave_create_ex+0x4ba>
 4ba:	48 83 05 00 00 00 00 	addq   $0x1,0x0(%rip)        # 4c2 <enclave_create_ex+0x4c2>
 4c1:	01 
 4c2:	e9 24 ff ff ff       	jmp    3eb <enclave_create_ex+0x3eb>
 4c7:	66 0f 1f 84 00 00 00 	nopw   0x0(%rax,%rax,1)
 4ce:	00 00 
 4d0:	48 39 de             	cmp    %rbx,%rsi
 4d3:	74 0a                	je     4df <enclave_create_ex+0x4df>
 4d5:	48 39 4e 20          	cmp    %rcx,0x20(%rsi)
 4d9:	0f 86 f1 02 00 00    	jbe    7d0 <enclave_create_ex+0x7d0>
 4df:	4c 8b 3d 00 00 00 00 	mov    0x0(%rip),%r15        # 4e6 <enclave_create_ex+0x4e6>
 4e6:	48 8d 6c 24 1b       	lea    0x1b(%rsp),%rbp
 4eb:	4c 8d 74 24 30       	lea    0x30(%rsp),%r14
 4f0:	48 8d 44 24 20       	lea    0x20(%rsp),%rax
 4f5:	49 89 e8             	mov    %rbp,%r8
 4f8:	4c 89 f1             	mov    %r14,%rcx
 4fb:	4c 89 fa             	mov    %r15,%rdx
 4fe:	48 8d 3d 00 00 00 00 	lea    0x0(%rip),%rdi        # 505 <enclave_create_ex+0x505>
 505:	48 89 04 24          	mov    %rax,(%rsp)
 509:	48 89 44 24 30       	mov    %rax,0x30(%rsp)
 50e:	e8 00 00 00 00       	call   513 <enclave_create_ex+0x513>
 513:	48 8b 15 00 00 00 00 	mov    0x0(%rip),%rdx        # 51a <enclave_create_ex+0x51a>
 51a:	48 c7 40 28 00 00 00 	movq   $0x0,0x28(%rax)
 521:	00 
 522:	48 85 d2             	test   %rdx,%rdx
 525:	0f 84 25 05 00 00    	je     a50 <enclave_create_ex+0xa50>
 52b:	48 8b 4c 24 20       	mov    0x20(%rsp),%rcx
 530:	48 89 d0             	mov    %rdx,%rax
 533:	48 89 de             	mov    %rbx,%rsi
 536:	eb 14                	jmp    54c <enclave_create_ex+0x54c>
 538:	0f 1f 84 00 00 00 00 	nopl   0x0(%rax,%rax,1)
 53f:	00 
 540:	48 89 c6             	mov    %rax,%rsi
 543:	48 8b 40 10          	mov    0x10(%rax),%rax
 547:	48 85 c0             	test   %rax,%rax
 54a:	74 14                	je     560 <enclave_create_ex+0x560>
 54c:	48 39 48 20          	cmp    %rcx,0x20(%rax)
 550:	73 ee                	jae    540 <enclave_create_ex+0x540>
 552:	48 8b 40 18          	mov    0x18(%rax),%rax
 556:	eb ef                	jmp    547 <enclave_create_ex+0x547>
 558:	0f 1f 84 00 00 00 00 	nopl   0x0(%rax,%rax,1)
 55f:	00 
 560:	48 39 de             	cmp    %rbx,%rsi
 563:	74 0a                	je     56f <enclave_create_ex+0x56f>
 565:	48 39 4e 20          	cmp    %rcx,0x20(%rsi)
 569:	0f 86 51 02 00 00    	jbe    7c0 <enclave_create_ex+0x7c0>
 56f:	48 8d 44 24 20       	lea    0x20(%rsp),%rax
 574:	4c 8b 3d 00 00 00 00 	mov    0x0(%rip),%r15        # 57b <enclave_create_ex+0x57b>
 57b:	4c 8d 74 24 30       	lea    0x30(%rsp),%r14
 580:	48 89 04 24          	mov    %rax,(%rsp)
 584:	48 8d 6c 24 1b       	lea    0x1b(%rsp),%rbp
 589:	48 8b 04 24          	mov    (%rsp),%rax
 58d:	49 89 e8             	mov    %rbp,%r8
 590:	4c 89 f1             	mov    %r14,%rcx
 593:	4c 89 fa             	mov    %r15,%rdx
 596:	48 8d 3d 00 00 00 00 	lea    0x0(%rip),%rdi        # 59d <enclave_create_ex+0x59d>
 59d:	48 89 44 24 30       	mov    %rax,0x30(%rsp)
 5a2:	e8 00 00 00 00       	call   5a7 <enclave_create_ex+0x5a7>
 5a7:	48 8b 15 00 00 00 00 	mov    0x0(%rip),%rdx        # 5ae <enclave_create_ex+0x5ae>
 5ae:	48 c7 40 30 00 00 00 	movq   $0x0,0x30(%rax)
 5b5:	00 
 5b6:	48 85 d2             	test   %rdx,%rdx
 5b9:	0f 84 a1 04 00 00    	je     a60 <enclave_create_ex+0xa60>
 5bf:	48 8b 4c 24 20       	mov    0x20(%rsp),%rcx
 5c4:	48 89 de             	mov    %rbx,%rsi
 5c7:	eb 13                	jmp    5dc <enclave_create_ex+0x5dc>
 5c9:	0f 1f 80 00 00 00 00 	nopl   0x0(%rax)
 5d0:	48 89 d6             	mov    %rdx,%rsi
 5d3:	48 8b 52 10          	mov    0x10(%rdx),%rdx
 5d7:	48 85 d2             	test   %rdx,%rdx
 5da:	74 14                	je     5f0 <enclave_create_ex+0x5f0>
 5dc:	48 39 4a 20          	cmp    %rcx,0x20(%rdx)
 5e0:	73 ee                	jae    5d0 <enclave_create_ex+0x5d0>
 5e2:	48 8b 52 18          	mov    0x18(%rdx),%rdx
 5e6:	eb ef                	jmp    5d7 <enclave_create_ex+0x5d7>
 5e8:	0f 1f 84 00 00 00 00 	nopl   0x0(%rax,%rax,1)
 5ef:	00 
 5f0:	48 39 de             	cmp    %rbx,%rsi
 5f3:	74 5b                	je     650 <enclave_create_ex+0x650>
 5f5:	48 39 4e 20          	cmp    %rcx,0x20(%rsi)
 5f9:	77 55                	ja     650 <enclave_create_ex+0x650>
 5fb:	c7 46 38 00 00 00 00 	movl   $0x0,0x38(%rsi)
 602:	4d 85 e4             	test   %r12,%r12
 605:	0f 84 d2 00 00 00    	je     6dd <enclave_create_ex+0x6dd>
 60b:	48 8b 15 00 00 00 00 	mov    0x0(%rip),%rdx        # 612 <enclave_create_ex+0x612>
 612:	48 85 d2             	test   %rdx,%rdx
 615:	74 79                	je     690 <enclave_create_ex+0x690>
 617:	48 8d 0d 00 00 00 00 	lea    0x0(%rip),%rcx        # 61e <enclave_create_ex+0x61e>
 61e:	48 8b 44 24 20       	mov    0x20(%rsp),%rax
 623:	48 89 ce             	mov    %rcx,%rsi
 626:	eb 18                	jmp    640 <enclave_create_ex+0x640>
 628:	0f 1f 84 00 00 00 00 	nopl   0x0(%rax,%rax,1)
 62f:	00 
 630:	48 89 d6             	mov    %rdx,%rsi
 633:	48 8b 52 10          	mov    0x10(%rdx),%rdx
 637:	48 85 d2             	test   %rdx,%rdx
 63a:	0f 84 40 01 00 00    	je     780 <enclave_create_ex+0x780>
 640:	48 39 42 20          	cmp    %rax,0x20(%rdx)
 644:	73 ea                	jae    630 <enclave_create_ex+0x630>
 646:	48 8b 52 18          	mov    0x18(%rdx),%rdx
 64a:	eb eb                	jmp    637 <enclave_create_ex+0x637>
 64c:	0f 1f 40 00          	nopl   0x0(%rax)
 650:	48 8d 44 24 20       	lea    0x20(%rsp),%rax
 655:	4c 8b 3d 00 00 00 00 	mov    0x0(%rip),%r15        # 65c <enclave_create_ex+0x65c>
 65c:	4c 8d 74 24 30       	lea    0x30(%rsp),%r14
 661:	48 89 04 24          	mov    %rax,(%rsp)
 665:	48 8d 6c 24 1b       	lea    0x1b(%rsp),%rbp
 66a:	48 8b 04 24          	mov    (%rsp),%rax
 66e:	49 89 e8             	mov    %rbp,%r8
 671:	4c 89 f1             	mov    %r14,%rcx
 674:	4c 89 fa             	mov    %r15,%rdx
 677:	48 8d 3d 00 00 00 00 	lea    0x0(%rip),%rdi        # 67e <enclave_create_ex+0x67e>
 67e:	48 89 44 24 30       	mov    %rax,0x30(%rsp)
 683:	e8 00 00 00 00       	call   688 <enclave_create_ex+0x688>
 688:	48 89 c6             	mov    %rax,%rsi
 68b:	e9 6b ff ff ff       	jmp    5fb <enclave_create_ex+0x5fb>
 690:	48 8d 35 00 00 00 00 	lea    0x0(%rip),%rsi        # 697 <enclave_create_ex+0x697>
 697:	66 0f 1f 84 00 00 00 	nopw   0x0(%rax,%rax,1)
 69e:	00 00 
 6a0:	48 8b 15 00 00 00 00 	mov    0x0(%rip),%rdx        # 6a7 <enclave_create_ex+0x6a7>
 6a7:	48 8d 44 24 20       	lea    0x20(%rsp),%rax
 6ac:	48 8d 4c 24 30       	lea    0x30(%rsp),%rcx
 6b1:	4c 8d 44 24 1b       	lea    0x1b(%rsp),%r8
 6b6:	48 8d 3d 00 00 00 00 	lea    0x0(%rip),%rdi        # 6bd <enclave_create_ex+0x6bd>
 6bd:	48 89 44 24 30       	mov    %rax,0x30(%rsp)
 6c2:	e8 00 00 00 00       	call   6c7 <enclave_create_ex+0x6c7>
 6c7:	48 89 c6             	mov    %rax,%rsi
 6ca:	f3 41 0f 6f 14 24    	movdqu (%r12),%xmm2
 6d0:	0f 11 56 28          	movups %xmm2,0x28(%rsi)
 6d4:	49 8b 44 24 10       	mov    0x10(%r12),%rax
 6d9:	48 89 46 38          	mov    %rax,0x38(%rsi)
 6dd:	48 8d 3d 00 00 00 00 	lea    0x0(%rip),%rdi        # 6e4 <enclave_create_ex+0x6e4>
 6e4:	e8 00 00 00 00       	call   6e9 <enclave_create_ex+0x6e9>
 6e9:	4d 85 ed             	test   %r13,%r13
 6ec:	74 08                	je     6f6 <enclave_create_ex+0x6f6>
 6ee:	41 c7 45 00 00 00 00 	movl   $0x0,0x0(%r13)
 6f5:	00 
 6f6:	4c 8b 64 24 20       	mov    0x20(%rsp),%r12
 6fb:	e9 40 fa ff ff       	jmp    140 <enclave_create_ex+0x140>
 700:	48 8d 3d 00 00 00 00 	lea    0x0(%rip),%rdi        # 707 <enclave_create_ex+0x707>
 707:	e8 00 00 00 00       	call   70c <enclave_create_ex+0x70c>
 70c:	84 c0                	test   %al,%al
 70e:	74 50                	je     760 <enclave_create_ex+0x760>
 710:	8b 05 00 00 00 00    	mov    0x0(%rip),%eax        # 716 <enclave_create_ex+0x716>
 716:	8d 50 fe             	lea    -0x2(%rax),%edx
 719:	83 fa 01             	cmp    $0x1,%edx
 71c:	0f 87 c1 fa ff ff    	ja     1e3 <enclave_create_ex+0x1e3>
 722:	48 8d 3d 00 00 00 00 	lea    0x0(%rip),%rdi        # 729 <enclave_create_ex+0x729>
 729:	e8 00 00 00 00       	call   72e <enclave_create_ex+0x72e>
 72e:	83 3d 00 00 00 00 ff 	cmpl   $0xffffffff,0x0(%rip)        # 735 <enclave_create_ex+0x735>
 735:	0f 84 b2 03 00 00    	je     aed <enclave_create_ex+0xaed>
 73b:	48 8d 3d 00 00 00 00 	lea    0x0(%rip),%rdi        # 742 <enclave_create_ex+0x742>
 742:	e8 00 00 00 00       	call   747 <enclave_create_ex+0x747>
 747:	8b 05 00 00 00 00    	mov    0x0(%rip),%eax        # 74d <enclave_create_ex+0x74d>
 74d:	4d 85 e4             	test   %r12,%r12
 750:	0f 84 8d fa ff ff    	je     1e3 <enclave_create_ex+0x1e3>
 756:	66 2e 0f 1f 84 00 00 	cs nopw 0x0(%rax,%rax,1)
 75d:	00 00 00 
 760:	4d 85 ed             	test   %r13,%r13
 763:	0f 84 3f fa ff ff    	je     1a8 <enclave_create_ex+0x1a8>
 769:	41 c7 45 00 01 00 00 	movl   $0x1,0x0(%r13)
 770:	00 
 771:	45 31 e4             	xor    %r12d,%r12d
 774:	e9 c7 f9 ff ff       	jmp    140 <enclave_create_ex+0x140>
 779:	0f 1f 80 00 00 00 00 	nopl   0x0(%rax)
 780:	48 39 ce             	cmp    %rcx,%rsi
 783:	0f 84 17 ff ff ff    	je     6a0 <enclave_create_ex+0x6a0>
 789:	48 39 46 20          	cmp    %rax,0x20(%rsi)
 78d:	0f 86 37 ff ff ff    	jbe    6ca <enclave_create_ex+0x6ca>
 793:	e9 08 ff ff ff       	jmp    6a0 <enclave_create_ex+0x6a0>
 798:	0f 1f 84 00 00 00 00 	nopl   0x0(%rax,%rax,1)
 79f:	00 
 7a0:	83 3d 00 00 00 00 01 	cmpl   $0x1,0x0(%rip)        # 7a7 <enclave_create_ex+0x7a7>
 7a7:	0f 84 d3 00 00 00    	je     880 <enclave_create_ex+0x880>
 7ad:	48 89 7b 08          	mov    %rdi,0x8(%rbx)
 7b1:	e9 8f fa ff ff       	jmp    245 <enclave_create_ex+0x245>
 7b6:	66 2e 0f 1f 84 00 00 	cs nopw 0x0(%rax,%rax,1)
 7bd:	00 00 00 
 7c0:	48 c7 46 30 00 00 00 	movq   $0x0,0x30(%rsi)
 7c7:	00 
 7c8:	e9 f7 fd ff ff       	jmp    5c4 <enclave_create_ex+0x5c4>
 7cd:	0f 1f 00             	nopl   (%rax)
 7d0:	48 c7 46 28 00 00 00 	movq   $0x0,0x28(%rsi)
 7d7:	00 
 7d8:	e9 53 fd ff ff       	jmp    530 <enclave_create_ex+0x530>
 7dd:	0f 1f 00             	nopl   (%rax)
 7e0:	48 89 ef             	mov    %rbp,%rdi
 7e3:	4c 89 f5             	mov    %r14,%rbp
 7e6:	e8 00 00 00 00       	call   7eb <enclave_create_ex+0x7eb>
 7eb:	e9 fb fb ff ff       	jmp    3eb <enclave_create_ex+0x3eb>
 7f0:	4c 89 c7             	mov    %r8,%rdi
 7f3:	e8 00 00 00 00       	call   7f8 <enclave_create_ex+0x7f8>
 7f8:	4d 89 f8             	mov    %r15,%r8
 7fb:	e9 fb fa ff ff       	jmp    2fb <enclave_create_ex+0x2fb>
 800:	44 8b 7c 24 1c       	mov    0x1c(%rsp),%r15d
 805:	4c 8b 74 24 20       	mov    0x20(%rsp),%r14
 80a:	41 83 ff ff          	cmp    $0xffffffff,%r15d
 80e:	0f 84 70 fa ff ff    	je     284 <enclave_create_ex+0x284>
 814:	4d 85 f6             	test   %r14,%r14
 817:	0f 84 67 fa ff ff    	je     284 <enclave_create_ex+0x284>
 81d:	be 02 00 00 00       	mov    $0x2,%esi
 822:	83 f8 01             	cmp    $0x1,%eax
 825:	0f 84 fa 02 00 00    	je     b25 <enclave_create_ex+0xb25>
 82b:	48 8d 3d 00 00 00 00 	lea    0x0(%rip),%rdi        # 832 <enclave_create_ex+0x832>
 832:	31 c0                	xor    %eax,%eax
 834:	e8 00 00 00 00       	call   839 <enclave_create_ex+0x839>
 839:	41 89 c0             	mov    %eax,%r8d
 83c:	83 f8 ff             	cmp    $0xffffffff,%eax
 83f:	0f 84 3f fa ff ff    	je     284 <enclave_create_ex+0x284>
 845:	4c 89 74 24 30       	mov    %r14,0x30(%rsp)
 84a:	48 98                	cltq   
 84c:	4c 8d 74 24 30       	lea    0x30(%rsp),%r14
 851:	44 89 ff             	mov    %r15d,%edi
 854:	48 89 44 24 38       	mov    %rax,0x38(%rsp)
 859:	4c 89 f2             	mov    %r14,%rdx
 85c:	be 03 a4 10 40       	mov    $0x4010a403,%esi
 861:	31 c0                	xor    %eax,%eax
 863:	44 89 04 24          	mov    %r8d,(%rsp)
 867:	e8 00 00 00 00       	call   86c <enclave_create_ex+0x86c>
 86c:	44 8b 04 24          	mov    (%rsp),%r8d
 870:	44 89 c7             	mov    %r8d,%edi
 873:	e8 00 00 00 00       	call   878 <enclave_create_ex+0x878>
 878:	e9 07 fa ff ff       	jmp    284 <enclave_create_ex+0x284>
 87d:	0f 1f 00             	nopl   (%rax)
 880:	48 89 e8             	mov    %rbp,%rax
 883:	4c 8d 74 2f ff       	lea    -0x1(%rdi,%rbp,1),%r14
 888:	48 f7 d8             	neg    %rax
 88b:	49 21 c6             	and    %rax,%r14
 88e:	4c 89 f0             	mov    %r14,%rax
 891:	4c 39 f7             	cmp    %r14,%rdi
 894:	74 19                	je     8af <enclave_create_ex+0x8af>
 896:	4c 89 f6             	mov    %r14,%rsi
 899:	48 29 fe             	sub    %rdi,%rsi
 89c:	e8 00 00 00 00       	call   8a1 <enclave_create_ex+0x8a1>
 8a1:	83 f8 ff             	cmp    $0xffffffff,%eax
 8a4:	0f 84 ea 02 00 00    	je     b94 <enclave_create_ex+0xb94>
 8aa:	48 8b 44 24 20       	mov    0x20(%rsp),%rax
 8af:	48 8d 74 05 00       	lea    0x0(%rbp,%rax,1),%rsi
 8b4:	4c 39 f6             	cmp    %r14,%rsi
 8b7:	74 16                	je     8cf <enclave_create_ex+0x8cf>
 8b9:	4c 29 f6             	sub    %r14,%rsi
 8bc:	4a 8d 7c 35 00       	lea    0x0(%rbp,%r14,1),%rdi
 8c1:	e8 00 00 00 00       	call   8c6 <enclave_create_ex+0x8c6>
 8c6:	83 f8 ff             	cmp    $0xffffffff,%eax
 8c9:	0f 84 ee 02 00 00    	je     bbd <enclave_create_ex+0xbbd>
 8cf:	4c 89 74 24 20       	mov    %r14,0x20(%rsp)
 8d4:	4c 89 f7             	mov    %r14,%rdi
 8d7:	e9 d1 fe ff ff       	jmp    7ad <enclave_create_ex+0x7ad>
 8dc:	0f 1f 40 00          	nopl   0x0(%rax)
 8e0:	4d 85 ed             	test   %r13,%r13
 8e3:	74 08                	je     8ed <enclave_create_ex+0x8ed>
 8e5:	41 c7 45 00 13 00 00 	movl   $0x13,0x0(%r13)
 8ec:	00 
 8ed:	83 3d 00 00 00 00 01 	cmpl   $0x1,0x0(%rip)        # 8f4 <enclave_create_ex+0x8f4>
 8f4:	0f 84 df 01 00 00    	je     ad9 <enclave_create_ex+0xad9>
 8fa:	4c 89 fe             	mov    %r15,%rsi
 8fd:	45 31 e4             	xor    %r12d,%r12d
 900:	e8 00 00 00 00       	call   905 <enclave_create_ex+0x905>
 905:	e9 36 f8 ff ff       	jmp    140 <enclave_create_ex+0x140>
 90a:	66 0f 1f 44 00 00    	nopw   0x0(%rax,%rax,1)
 910:	48 8d 3d 00 00 00 00 	lea    0x0(%rip),%rdi        # 917 <enclave_create_ex+0x917>
 917:	e8 00 00 00 00       	call   91c <enclave_create_ex+0x91c>
 91c:	83 3d 00 00 00 00 01 	cmpl   $0x1,0x0(%rip)        # 923 <enclave_create_ex+0x923>
 923:	0f 84 e7 00 00 00    	je     a10 <enclave_create_ex+0xa10>
 929:	48 8d 3d 00 00 00 00 	lea    0x0(%rip),%rdi        # 930 <enclave_create_ex+0x930>
 930:	e8 00 00 00 00       	call   935 <enclave_create_ex+0x935>
 935:	e9 26 fe ff ff       	jmp    760 <enclave_create_ex+0x760>
 93a:	66 0f 1f 44 00 00    	nopw   0x0(%rax,%rax,1)
 940:	8b 44 24 1c          	mov    0x1c(%rsp),%eax
 944:	48 8b 15 00 00 00 00 	mov    0x0(%rip),%rdx        # 94b <enclave_create_ex+0x94b>
 94b:	89 04 24             	mov    %eax,(%rsp)
 94e:	48 85 d2             	test   %rdx,%rdx
 951:	0f 84 10 02 00 00    	je     b67 <enclave_create_ex+0xb67>
 957:	48 8d 0d 00 00 00 00 	lea    0x0(%rip),%rcx        # 95e <enclave_create_ex+0x95e>
 95e:	48 8b 44 24 20       	mov    0x20(%rsp),%rax
 963:	48 89 ce             	mov    %rcx,%rsi
 966:	eb 14                	jmp    97c <enclave_create_ex+0x97c>
 968:	0f 1f 84 00 00 00 00 	nopl   0x0(%rax,%rax,1)
 96f:	00 
 970:	48 89 d6             	mov    %rdx,%rsi
 973:	48 8b 52 10          	mov    0x10(%rdx),%rdx
 977:	48 85 d2             	test   %rdx,%rdx
 97a:	74 14                	je     990 <enclave_create_ex+0x990>
 97c:	48 39 42 20          	cmp    %rax,0x20(%rdx)
 980:	73 ee                	jae    970 <enclave_create_ex+0x970>
 982:	48 8b 52 18          	mov    0x18(%rdx),%rdx
 986:	eb ef                	jmp    977 <enclave_create_ex+0x977>
 988:	0f 1f 84 00 00 00 00 	nopl   0x0(%rax,%rax,1)
 98f:	00 
 990:	48 39 ce             	cmp    %rcx,%rsi
 993:	74 06                	je     99b <enclave_create_ex+0x99b>
 995:	48 39 46 20          	cmp    %rax,0x20(%rsi)
 999:	76 30                	jbe    9cb <enclave_create_ex+0x9cb>
 99b:	4c 8b 3d 00 00 00 00 	mov    0x0(%rip),%r15        # 9a2 <enclave_create_ex+0x9a2>
 9a2:	4c 8d 74 24 30       	lea    0x30(%rsp),%r14
 9a7:	48 8d 44 24 20       	lea    0x20(%rsp),%rax
 9ac:	4c 8d 44 24 1b       	lea    0x1b(%rsp),%r8
 9b1:	4c 89 f1             	mov    %r14,%rcx
 9b4:	48 89 44 24 30       	mov    %rax,0x30(%rsp)
 9b9:	48 8d 3d 00 00 00 00 	lea    0x0(%rip),%rdi        # 9c0 <enclave_create_ex+0x9c0>
 9c0:	4c 89 fa             	mov    %r15,%rdx
 9c3:	e8 00 00 00 00       	call   9c8 <enclave_create_ex+0x9c8>
 9c8:	48 89 c6             	mov    %rax,%rsi
 9cb:	8b 04 24             	mov    (%rsp),%eax
 9ce:	89 46 28             	mov    %eax,0x28(%rsi)
 9d1:	e9 c7 f8 ff ff       	jmp    29d <enclave_create_ex+0x29d>
 9d6:	66 2e 0f 1f 84 00 00 	cs nopw 0x0(%rax,%rax,1)
 9dd:	00 00 00 
 9e0:	4d 85 ed             	test   %r13,%r13
 9e3:	74 08                	je     9ed <enclave_create_ex+0x9ed>
 9e5:	41 c7 45 00 13 00 00 	movl   $0x13,0x0(%r13)
 9ec:	00 
 9ed:	83 3d 00 00 00 00 01 	cmpl   $0x1,0x0(%rip)        # 9f4 <enclave_create_ex+0x9f4>
 9f4:	0f 85 ae f7 ff ff    	jne    1a8 <enclave_create_ex+0x1a8>
 9fa:	48 8d 7c 24 1c       	lea    0x1c(%rsp),%rdi
 9ff:	45 31 e4             	xor    %r12d,%r12d
 a02:	e8 00 00 00 00       	call   a07 <enclave_create_ex+0xa07>
 a07:	e9 34 f7 ff ff       	jmp    140 <enclave_create_ex+0x140>
 a0c:	0f 1f 40 00          	nopl   0x0(%rax)
 a10:	48 8d 74 24 1c       	lea    0x1c(%rsp),%rsi
 a15:	bf 01 00 00 00       	mov    $0x1,%edi
 a1a:	e8 00 00 00 00       	call   a1f <enclave_create_ex+0xa1f>
 a1f:	84 c0                	test   %al,%al
 a21:	0f 84 02 ff ff ff    	je     929 <enclave_create_ex+0x929>
 a27:	48 8d 3d 00 00 00 00 	lea    0x0(%rip),%rdi        # a2e <enclave_create_ex+0xa2e>
 a2e:	e8 00 00 00 00       	call   a33 <enclave_create_ex+0xa33>
 a33:	4d 85 e4             	test   %r12,%r12
 a36:	74 5e                	je     a96 <enclave_create_ex+0xa96>
 a38:	83 3d 00 00 00 00 01 	cmpl   $0x1,0x0(%rip)        # a3f <enclave_create_ex+0xa3f>
 a3f:	74 3f                	je     a80 <enclave_create_ex+0xa80>
 a41:	44 8b 44 24 1c       	mov    0x1c(%rsp),%r8d
 a46:	49 89 ef             	mov    %rbp,%r15
 a49:	e9 ad f7 ff ff       	jmp    1fb <enclave_create_ex+0x1fb>
 a4e:	66 90                	xchg   %ax,%ax
 a50:	48 89 de             	mov    %rbx,%rsi
 a53:	e9 31 fb ff ff       	jmp    589 <enclave_create_ex+0x589>
 a58:	0f 1f 84 00 00 00 00 	nopl   0x0(%rax,%rax,1)
 a5f:	00 
 a60:	48 89 de             	mov    %rbx,%rsi
 a63:	e9 02 fc ff ff       	jmp    66a <enclave_create_ex+0x66a>
 a68:	0f 1f 84 00 00 00 00 	nopl   0x0(%rax,%rax,1)
 a6f:	00 
 a70:	48 8d 1d 00 00 00 00 	lea    0x0(%rip),%rbx        # a77 <enclave_create_ex+0xa77>
 a77:	48 89 de             	mov    %rbx,%rsi
 a7a:	e9 60 fa ff ff       	jmp    4df <enclave_create_ex+0x4df>
 a7f:	90                   	nop
 a80:	49 89 ef             	mov    %rbp,%r15
 a83:	b9 22 00 10 00       	mov    $0x100022,%ecx
 a88:	45 31 c9             	xor    %r9d,%r9d
 a8b:	41 b8 ff ff ff ff    	mov    $0xffffffff,%r8d
 a91:	e9 6d f7 ff ff       	jmp    203 <enclave_create_ex+0x203>
 a96:	83 3d 00 00 00 00 01 	cmpl   $0x1,0x0(%rip)        # a9d <enclave_create_ex+0xa9d>
 a9d:	4c 8d 7c 2d 00       	lea    0x0(%rbp,%rbp,1),%r15
 aa2:	b9 22 00 00 00       	mov    $0x22,%ecx
 aa7:	74 df                	je     a88 <enclave_create_ex+0xa88>
 aa9:	44 8b 44 24 1c       	mov    0x1c(%rsp),%r8d
 aae:	e9 48 f7 ff ff       	jmp    1fb <enclave_create_ex+0x1fb>
 ab3:	31 ff                	xor    %edi,%edi
 ab5:	48 8b 42 20          	mov    0x20(%rdx),%rax
 ab9:	48 39 45 20          	cmp    %rax,0x20(%rbp)
 abd:	40 0f 92 c7          	setb   %dil
 ac1:	e9 e5 f9 ff ff       	jmp    4ab <enclave_create_ex+0x4ab>
 ac6:	31 ff                	xor    %edi,%edi
 ac8:	48 8b 42 20          	mov    0x20(%rdx),%rax
 acc:	49 39 40 20          	cmp    %rax,0x20(%r8)
 ad0:	40 0f 92 c7          	setb   %dil
 ad4:	e9 e2 f8 ff ff       	jmp    3bb <enclave_create_ex+0x3bb>
 ad9:	48 8d 7c 24 1c       	lea    0x1c(%rsp),%rdi
 ade:	e8 00 00 00 00       	call   ae3 <enclave_create_ex+0xae3>
 ae3:	48 8b 7c 24 20       	mov    0x20(%rsp),%rdi
 ae8:	e9 0d fe ff ff       	jmp    8fa <enclave_create_ex+0x8fa>
 aed:	8b 3d 00 00 00 00    	mov    0x0(%rip),%edi        # af3 <enclave_create_ex+0xaf3>
 af3:	48 8d 35 00 00 00 00 	lea    0x0(%rip),%rsi        # afa <enclave_create_ex+0xafa>
 afa:	e8 00 00 00 00       	call   aff <enclave_create_ex+0xaff>
 aff:	84 c0                	test   %al,%al
 b01:	0f 85 34 fc ff ff    	jne    73b <enclave_create_ex+0x73b>
 b07:	c7 05 00 00 00 00 ff 	movl   $0xffffffff,0x0(%rip)        # b11 <enclave_create_ex+0xb11>
 b0e:	ff ff ff 
 b11:	e9 25 fc ff ff       	jmp    73b <enclave_create_ex+0x73b>
 b16:	48 8d 7c 24 1c       	lea    0x1c(%rsp),%rdi
 b1b:	e8 00 00 00 00       	call   b20 <enclave_create_ex+0xb20>
 b20:	e9 70 f6 ff ff       	jmp    195 <enclave_create_ex+0x195>
 b25:	48 8d 3d 00 00 00 00 	lea    0x0(%rip),%rdi        # b2c <enclave_create_ex+0xb2c>
 b2c:	31 c0                	xor    %eax,%eax
 b2e:	e8 00 00 00 00       	call   b33 <enclave_create_ex+0xb33>
 b33:	41 89 c0             	mov    %eax,%r8d
 b36:	83 f8 ff             	cmp    $0xffffffff,%eax
 b39:	74 38                	je     b73 <enclave_create_ex+0xb73>
 b3b:	49 63 c0             	movslq %r8d,%rax
 b3e:	4c 8d 74 24 30       	lea    0x30(%rsp),%r14
 b43:	be 03 a4 08 40       	mov    $0x4008a403,%esi
 b48:	44 89 ff             	mov    %r15d,%edi
 b4b:	48 89 44 24 30       	mov    %rax,0x30(%rsp)
 b50:	4c 89 f2             	mov    %r14,%rdx
 b53:	31 c0                	xor    %eax,%eax
 b55:	44 89 04 24          	mov    %r8d,(%rsp)
 b59:	e8 00 00 00 00       	call   b5e <enclave_create_ex+0xb5e>
 b5e:	44 8b 04 24          	mov    (%rsp),%r8d
 b62:	e9 09 fd ff ff       	jmp    870 <enclave_create_ex+0x870>
 b67:	48 8d 35 00 00 00 00 	lea    0x0(%rip),%rsi        # b6e <enclave_create_ex+0xb6e>
 b6e:	e9 28 fe ff ff       	jmp    99b <enclave_create_ex+0x99b>
 b73:	be 02 00 00 00       	mov    $0x2,%esi
 b78:	48 8d 3d 00 00 00 00 	lea    0x0(%rip),%rdi        # b7f <enclave_create_ex+0xb7f>
 b7f:	31 c0                	xor    %eax,%eax
 b81:	e8 00 00 00 00       	call   b86 <enclave_create_ex+0xb86>
 b86:	41 89 c0             	mov    %eax,%r8d
 b89:	83 f8 ff             	cmp    $0xffffffff,%eax
 b8c:	0f 84 de fc ff ff    	je     870 <enclave_create_ex+0x870>
 b92:	eb a7                	jmp    b3b <enclave_create_ex+0xb3b>
 b94:	4d 85 ed             	test   %r13,%r13
 b97:	74 08                	je     ba1 <enclave_create_ex+0xba1>
 b99:	41 c7 45 00 01 10 00 	movl   $0x1001,0x0(%r13)
 ba0:	00 
 ba1:	48 8d 7c 24 1c       	lea    0x1c(%rsp),%rdi
 ba6:	e8 00 00 00 00       	call   bab <enclave_create_ex+0xbab>
 bab:	48 8b 7c 24 20       	mov    0x20(%rsp),%rdi
 bb0:	4c 89 fe             	mov    %r15,%rsi
 bb3:	e8 00 00 00 00       	call   bb8 <enclave_create_ex+0xbb8>
 bb8:	e9 83 f5 ff ff       	jmp    140 <enclave_create_ex+0x140>
 bbd:	4d 85 ed             	test   %r13,%r13
 bc0:	74 08                	je     bca <enclave_create_ex+0xbca>
 bc2:	41 c7 45 00 01 10 00 	movl   $0x1001,0x0(%r13)
 bc9:	00 
 bca:	48 8d 7c 24 1c       	lea    0x1c(%rsp),%rdi
 bcf:	e8 00 00 00 00       	call   bd4 <enclave_create_ex+0xbd4>
 bd4:	48 8b 74 24 20       	mov    0x20(%rsp),%rsi
 bd9:	4c 89 f7             	mov    %r14,%rdi
 bdc:	4c 01 fe             	add    %r15,%rsi
 bdf:	4c 29 f6             	sub    %r14,%rsi
 be2:	e8 00 00 00 00       	call   be7 <enclave_create_ex+0xbe7>
 be7:	e9 54 f5 ff ff       	jmp    140 <enclave_create_ex+0x140>
 bec:	e8 00 00 00 00       	call   bf1 <enclave_create_ex+0xbf1>
 bf1:	f3 0f 1e fa          	endbr64 
 bf5:	48 89 c5             	mov    %rax,%rbp
 bf8:	e9 00 00 00 00       	jmp    bfd <enclave_create_ex+0xbfd>
 bfd:	f3 0f 1e fa          	endbr64 
 c01:	48 89 c5             	mov    %rax,%rbp
 c04:	e9 00 00 00 00       	jmp    c09 <enclave_create_ex+0xc09>
 c09:	f3 0f 1e fa          	endbr64 
 c0d:	48 89 c5             	mov    %rax,%rbp
 c10:	e9 00 00 00 00       	jmp    c15 <.LC11+0xbef>

Disassembly of section .text.enclave_create:

0000000000000000 <enclave_create>:
   0:	f3 0f 1e fa          	endbr64 
   4:	48 83 ec 10          	sub    $0x10,%rsp
   8:	ff 74 24 18          	push   0x18(%rsp)
   c:	6a 00                	push   $0x0
   e:	6a 00                	push   $0x0
  10:	e8 00 00 00 00       	call   15 <enclave_create+0x15>
  15:	48 83 c4 28          	add    $0x28,%rsp
  19:	c3                   	ret    

Disassembly of section .text._ZNSt8_Rb_treeIPvSt4pairIKS0_bESt10_Select1stIS3_ESt4lessIS0_ESaIS3_EE24_M_get_insert_unique_posERS2_:

0000000000000000 <_ZNSt8_Rb_treeIPvSt4pairIKS0_bESt10_Select1stIS3_ESt4lessIS0_ESaIS3_EE24_M_get_insert_unique_posERS2_>:
   0:	f3 0f 1e fa          	endbr64 
   4:	55                   	push   %rbp
   5:	48 89 f5             	mov    %rsi,%rbp
   8:	53                   	push   %rbx
   9:	48 83 ec 08          	sub    $0x8,%rsp
   d:	48 8b 5f 10          	mov    0x10(%rdi),%rbx
  11:	48 85 db             	test   %rbx,%rbx
  14:	74 5a                	je     70 <_ZNSt8_Rb_treeIPvSt4pairIKS0_bESt10_Select1stIS3_ESt4lessIS0_ESaIS3_EE24_M_get_insert_unique_posERS2_+0x70>
  16:	4c 8b 06             	mov    (%rsi),%r8
  19:	eb 17                	jmp    32 <_ZNSt8_Rb_treeIPvSt4pairIKS0_bESt10_Select1stIS3_ESt4lessIS0_ESaIS3_EE24_M_get_insert_unique_posERS2_+0x32>
  1b:	0f 1f 44 00 00       	nopl   0x0(%rax,%rax,1)
  20:	48 8b 43 10          	mov    0x10(%rbx),%rax
  24:	41 b9 01 00 00 00    	mov    $0x1,%r9d
  2a:	48 85 c0             	test   %rax,%rax
  2d:	74 18                	je     47 <_ZNSt8_Rb_treeIPvSt4pairIKS0_bESt10_Select1stIS3_ESt4lessIS0_ESaIS3_EE24_M_get_insert_unique_posERS2_+0x47>
  2f:	48 89 c3             	mov    %rax,%rbx
  32:	48 8b 4b 20          	mov    0x20(%rbx),%rcx
  36:	4c 39 c1             	cmp    %r8,%rcx
  39:	77 e5                	ja     20 <_ZNSt8_Rb_treeIPvSt4pairIKS0_bESt10_Select1stIS3_ESt4lessIS0_ESaIS3_EE24_M_get_insert_unique_posERS2_+0x20>
  3b:	48 8b 43 18          	mov    0x18(%rbx),%rax
  3f:	45 31 c9             	xor    %r9d,%r9d
  42:	48 85 c0             	test   %rax,%rax
  45:	75 e8                	jne    2f <_ZNSt8_Rb_treeIPvSt4pairIKS0_bESt10_Select1stIS3_ESt4lessIS0_ESaIS3_EE24_M_get_insert_unique_posERS2_+0x2f>
  47:	48 89 de             	mov    %rbx,%rsi
  4a:	45 84 c9             	test   %r9b,%r9b
  4d:	75 25                	jne    74 <_ZNSt8_Rb_treeIPvSt4pairIKS0_bESt10_Select1stIS3_ESt4lessIS0_ESaIS3_EE24_M_get_insert_unique_posERS2_+0x74>
  4f:	31 d2                	xor    %edx,%edx
  51:	48 89 d8             	mov    %rbx,%rax
  54:	49 39 c8             	cmp    %rcx,%r8
  57:	48 0f 47 c2          	cmova  %rdx,%rax
  5b:	48 0f 47 d6          	cmova  %rsi,%rdx
  5f:	48 83 c4 08          	add    $0x8,%rsp
  63:	5b                   	pop    %rbx
  64:	5d                   	pop    %rbp
  65:	c3                   	ret    
  66:	66 2e 0f 1f 84 00 00 	cs nopw 0x0(%rax,%rax,1)
  6d:	00 00 00 
  70:	48 8d 5f 08          	lea    0x8(%rdi),%rbx
  74:	31 c0                	xor    %eax,%eax
  76:	48 89 da             	mov    %rbx,%rdx
  79:	48 39 5f 18          	cmp    %rbx,0x18(%rdi)
  7d:	74 e0                	je     5f <_ZNSt8_Rb_treeIPvSt4pairIKS0_bESt10_Select1stIS3_ESt4lessIS0_ESaIS3_EE24_M_get_insert_unique_posERS2_+0x5f>
  7f:	48 89 df             	mov    %rbx,%rdi
  82:	e8 00 00 00 00       	call   87 <_ZNSt8_Rb_treeIPvSt4pairIKS0_bESt10_Select1stIS3_ESt4lessIS0_ESaIS3_EE24_M_get_insert_unique_posERS2_+0x87>
  87:	48 89 de             	mov    %rbx,%rsi
  8a:	4c 8b 45 00          	mov    0x0(%rbp),%r8
  8e:	48 8b 48 20          	mov    0x20(%rax),%rcx
  92:	48 89 c3             	mov    %rax,%rbx
  95:	eb b8                	jmp    4f <_ZNSt8_Rb_treeIPvSt4pairIKS0_bESt10_Select1stIS3_ESt4lessIS0_ESaIS3_EE24_M_get_insert_unique_posERS2_+0x4f>

Disassembly of section .text._ZNSt8_Rb_treeIPvSt4pairIKS0_bESt10_Select1stIS3_ESt4lessIS0_ESaIS3_EE29_M_get_insert_hint_unique_posESt23_Rb_tree_const_iteratorIS3_ERS2_:

0000000000000000 <_ZNSt8_Rb_treeIPvSt4pairIKS0_bESt10_Select1stIS3_ESt4lessIS0_ESaIS3_EE29_M_get_insert_hint_unique_posESt23_Rb_tree_const_iteratorIS3_ERS2_>:
   0:	f3 0f 1e fa          	endbr64 
   4:	41 55                	push   %r13
   6:	48 8d 47 08          	lea    0x8(%rdi),%rax
   a:	41 54                	push   %r12
   c:	49 89 d4             	mov    %rdx,%r12
   f:	55                   	push   %rbp
  10:	48 89 fd             	mov    %rdi,%rbp
  13:	53                   	push   %rbx
  14:	48 83 ec 08          	sub    $0x8,%rsp
  18:	48 39 c6             	cmp    %rax,%rsi
  1b:	0f 84 8f 00 00 00    	je     b0 <_ZNSt8_Rb_treeIPvSt4pairIKS0_bESt10_Select1stIS3_ESt4lessIS0_ESaIS3_EE29_M_get_insert_hint_unique_posESt23_Rb_tree_const_iteratorIS3_ERS2_+0xb0>
  21:	4c 8b 2a             	mov    (%rdx),%r13
  24:	48 89 f3             	mov    %rsi,%rbx
  27:	4c 39 6e 20          	cmp    %r13,0x20(%rsi)
  2b:	76 43                	jbe    70 <_ZNSt8_Rb_treeIPvSt4pairIKS0_bESt10_Select1stIS3_ESt4lessIS0_ESaIS3_EE29_M_get_insert_hint_unique_posESt23_Rb_tree_const_iteratorIS3_ERS2_+0x70>
  2d:	4c 8b 47 18          	mov    0x18(%rdi),%r8
  31:	4c 89 c2             	mov    %r8,%rdx
  34:	49 39 f0             	cmp    %rsi,%r8
  37:	74 24                	je     5d <_ZNSt8_Rb_treeIPvSt4pairIKS0_bESt10_Select1stIS3_ESt4lessIS0_ESaIS3_EE29_M_get_insert_hint_unique_posESt23_Rb_tree_const_iteratorIS3_ERS2_+0x5d>
  39:	48 89 f7             	mov    %rsi,%rdi
  3c:	e8 00 00 00 00       	call   41 <_ZNSt8_Rb_treeIPvSt4pairIKS0_bESt10_Select1stIS3_ESt4lessIS0_ESaIS3_EE29_M_get_insert_hint_unique_posESt23_Rb_tree_const_iteratorIS3_ERS2_+0x41>
  41:	4c 39 68 20          	cmp    %r13,0x20(%rax)
  45:	73 7d                	jae    c4 <_ZNSt8_Rb_treeIPvSt4pairIKS0_bESt10_Select1stIS3_ESt4lessIS0_ESaIS3_EE29_M_get_insert_hint_unique_posESt23_Rb_tree_const_iteratorIS3_ERS2_+0xc4>
  47:	48 83 78 18 00       	cmpq   $0x0,0x18(%rax)
  4c:	41 b8 00 00 00 00    	mov    $0x0,%r8d
  52:	4c 0f 45 c3          	cmovne %rbx,%r8
  56:	48 0f 44 d8          	cmove  %rax,%rbx
  5a:	48 89 da             	mov    %rbx,%rdx
  5d:	48 83 c4 08          	add    $0x8,%rsp
  61:	4c 89 c0             	mov    %r8,%rax
  64:	5b                   	pop    %rbx
  65:	5d                   	pop    %rbp
  66:	41 5c                	pop    %r12
  68:	41 5d                	pop    %r13
  6a:	c3                   	ret    
  6b:	0f 1f 44 00 00       	nopl   0x0(%rax,%rax,1)
  70:	73 6e                	jae    e0 <_ZNSt8_Rb_treeIPvSt4pairIKS0_bESt10_Select1stIS3_ESt4lessIS0_ESaIS3_EE29_M_get_insert_hint_unique_posESt23_Rb_tree_const_iteratorIS3_ERS2_+0xe0>
  72:	48 8b 47 20          	mov    0x20(%rdi),%rax
  76:	45 31 c0             	xor    %r8d,%r8d
  79:	48 89 c2             	mov    %rax,%rdx
  7c:	48 39 f0             	cmp    %rsi,%rax
  7f:	74 dc                	je     5d <_ZNSt8_Rb_treeIPvSt4pairIKS0_bESt10_Select1stIS3_ESt4lessIS0_ESaIS3_EE29_M_get_insert_hint_unique_posESt23_Rb_tree_const_iteratorIS3_ERS2_+0x5d>
  81:	48 89 f7             	mov    %rsi,%rdi
  84:	e8 00 00 00 00       	call   89 <_ZNSt8_Rb_treeIPvSt4pairIKS0_bESt10_Select1stIS3_ESt4lessIS0_ESaIS3_EE29_M_get_insert_hint_unique_posESt23_Rb_tree_const_iteratorIS3_ERS2_+0x89>
  89:	4c 39 68 20          	cmp    %r13,0x20(%rax)
  8d:	76 35                	jbe    c4 <_ZNSt8_Rb_treeIPvSt4pairIKS0_bESt10_Select1stIS3_ESt4lessIS0_ESaIS3_EE29_M_get_insert_hint_unique_posESt23_Rb_tree_const_iteratorIS3_ERS2_+0xc4>
  8f:	48 83 7b 18 00       	cmpq   $0x0,0x18(%rbx)
  94:	41 b8 00 00 00 00    	mov    $0x0,%r8d
  9a:	48 89 da             	mov    %rbx,%rdx
  9d:	4c 0f 45 c0          	cmovne %rax,%r8
  a1:	48 0f 45 d0          	cmovne %rax,%rdx
  a5:	eb b6                	jmp    5d <_ZNSt8_Rb_treeIPvSt4pairIKS0_bESt10_Select1stIS3_ESt4lessIS0_ESaIS3_EE29_M_get_insert_hint_unique_posESt23_Rb_tree_const_iteratorIS3_ERS2_+0x5d>
  a7:	66 0f 1f 84 00 00 00 	nopw   0x0(%rax,%rax,1)
  ae:	00 00 
  b0:	48 83 7f 28 00       	cmpq   $0x0,0x28(%rdi)
  b5:	74 0d                	je     c4 <_ZNSt8_Rb_treeIPvSt4pairIKS0_bESt10_Select1stIS3_ESt4lessIS0_ESaIS3_EE29_M_get_insert_hint_unique_posESt23_Rb_tree_const_iteratorIS3_ERS2_+0xc4>
  b7:	48 8b 5f 20          	mov    0x20(%rdi),%rbx
  bb:	48 8b 43 20          	mov    0x20(%rbx),%rax
  bf:	48 39 02             	cmp    %rax,(%rdx)
  c2:	77 34                	ja     f8 <_ZNSt8_Rb_treeIPvSt4pairIKS0_bESt10_Select1stIS3_ESt4lessIS0_ESaIS3_EE29_M_get_insert_hint_unique_posESt23_Rb_tree_const_iteratorIS3_ERS2_+0xf8>
  c4:	48 83 c4 08          	add    $0x8,%rsp
  c8:	4c 89 e6             	mov    %r12,%rsi
  cb:	48 89 ef             	mov    %rbp,%rdi
  ce:	5b                   	pop    %rbx
  cf:	5d                   	pop    %rbp
  d0:	41 5c                	pop    %r12
  d2:	41 5d                	pop    %r13
  d4:	e9 00 00 00 00       	jmp    d9 <_ZNSt8_Rb_treeIPvSt4pairIKS0_bESt10_Select1stIS3_ESt4lessIS0_ESaIS3_EE29_M_get_insert_hint_unique_posESt23_Rb_tree_const_iteratorIS3_ERS2_+0xd9>
  d9:	0f 1f 80 00 00 00 00 	nopl   0x0(%rax)
  e0:	48 83 c4 08          	add    $0x8,%rsp
  e4:	49 89 f0             	mov    %rsi,%r8
  e7:	31 d2                	xor    %edx,%edx
  e9:	5b                   	pop    %rbx
  ea:	4c 89 c0             	mov    %r8,%rax
  ed:	5d                   	pop    %rbp
  ee:	41 5c                	pop    %r12
  f0:	41 5d                	pop    %r13
  f2:	c3                   	ret    
  f3:	0f 1f 44 00 00       	nopl   0x0(%rax,%rax,1)
  f8:	48 83 c4 08          	add    $0x8,%rsp
  fc:	45 31 c0             	xor    %r8d,%r8d
  ff:	48 89 da             	mov    %rbx,%rdx
 102:	4c 89 c0             	mov    %r8,%rax
 105:	5b                   	pop    %rbx
 106:	5d                   	pop    %rbp
 107:	41 5c                	pop    %r12
 109:	41 5d                	pop    %r13
 10b:	c3                   	ret    

Disassembly of section .text.unlikely.enclave_initialize:

0000000000000000 <enclave_initialize.cold>:
   0:	48 8d 3d 00 00 00 00 	lea    0x0(%rip),%rdi        # 7 <enclave_initialize.cold+0x7>
   7:	e8 00 00 00 00       	call   c <enclave_initialize.cold+0xc>
   c:	48 89 ef             	mov    %rbp,%rdi
   f:	e8 00 00 00 00       	call   14 <.LC10+0x1>

Disassembly of section .text.enclave_initialize:

0000000000000000 <enclave_initialize>:
   0:	f3 0f 1e fa          	endbr64 
   4:	41 57                	push   %r15
   6:	41 56                	push   %r14
   8:	41 55                	push   %r13
   a:	41 54                	push   %r12
   c:	55                   	push   %rbp
   d:	48 89 cd             	mov    %rcx,%rbp
  10:	53                   	push   %rbx
  11:	48 81 ec 58 04 00 00 	sub    $0x458,%rsp
  18:	64 48 8b 04 25 28 00 	mov    %fs:0x28,%rax
  1f:	00 00 
  21:	48 89 84 24 48 04 00 	mov    %rax,0x448(%rsp)
  28:	00 
  29:	31 c0                	xor    %eax,%eax
  2b:	48 85 f6             	test   %rsi,%rsi
  2e:	0f 94 c1             	sete   %cl
  31:	48 85 ff             	test   %rdi,%rdi
  34:	0f 94 c0             	sete   %al
  37:	08 c1                	or     %al,%cl
  39:	75 25                	jne    60 <enclave_initialize+0x60>
  3b:	83 3d 00 00 00 00 01 	cmpl   $0x1,0x0(%rip)        # 42 <enclave_initialize+0x42>
  42:	48 89 fb             	mov    %rdi,%rbx
  45:	49 89 f5             	mov    %rsi,%r13
  48:	41 89 cc             	mov    %ecx,%r12d
  4b:	41 bf ff ff ff ff    	mov    $0xffffffff,%r15d
  51:	0f 84 b9 00 00 00    	je     110 <enclave_initialize+0x110>
  57:	48 81 fa 10 07 00 00 	cmp    $0x710,%rdx
  5e:	74 40                	je     a0 <enclave_initialize+0xa0>
  60:	48 85 ed             	test   %rbp,%rbp
  63:	74 07                	je     6c <enclave_initialize+0x6c>
  65:	c7 45 00 09 00 00 00 	movl   $0x9,0x0(%rbp)
  6c:	45 31 e4             	xor    %r12d,%r12d
  6f:	48 8b 84 24 48 04 00 	mov    0x448(%rsp),%rax
  76:	00 
  77:	64 48 33 04 25 28 00 	xor    %fs:0x28,%rax
  7e:	00 00 
  80:	0f 85 66 04 00 00    	jne    4ec <enclave_initialize+0x4ec>
  86:	48 81 c4 58 04 00 00 	add    $0x458,%rsp
  8d:	44 89 e0             	mov    %r12d,%eax
  90:	5b                   	pop    %rbx
  91:	5d                   	pop    %rbp
  92:	41 5c                	pop    %r12
  94:	41 5d                	pop    %r13
  96:	41 5e                	pop    %r14
  98:	41 5f                	pop    %r15
  9a:	c3                   	ret    
  9b:	0f 1f 44 00 00       	nopl   0x0(%rax,%rax,1)
  a0:	48 89 e9             	mov    %rbp,%rcx
  a3:	31 d2                	xor    %edx,%edx
  a5:	31 f6                	xor    %esi,%esi
  a7:	48 89 df             	mov    %rbx,%rdi
  aa:	e8 00 00 00 00       	call   af <enclave_initialize+0xaf>
  af:	41 89 c6             	mov    %eax,%r14d
  b2:	84 c0                	test   %al,%al
  b4:	74 b6                	je     6c <enclave_initialize+0x6c>
  b6:	8b 05 00 00 00 00    	mov    0x0(%rip),%eax        # bc <enclave_initialize+0xbc>
  bc:	83 f8 02             	cmp    $0x2,%eax
  bf:	0f 84 f3 01 00 00    	je     2b8 <enclave_initialize+0x2b8>
  c5:	83 f8 03             	cmp    $0x3,%eax
  c8:	0f 84 22 01 00 00    	je     1f0 <enclave_initialize+0x1f0>
  ce:	48 8d 54 24 20       	lea    0x20(%rsp),%rdx
  d3:	be 02 a4 08 40       	mov    $0x4008a402,%esi
  d8:	44 89 ff             	mov    %r15d,%edi
  db:	31 c0                	xor    %eax,%eax
  dd:	4c 89 6c 24 20       	mov    %r13,0x20(%rsp)
  e2:	e8 00 00 00 00       	call   e7 <enclave_initialize+0xe7>
  e7:	41 89 c5             	mov    %eax,%r13d
  ea:	45 85 ed             	test   %r13d,%r13d
  ed:	74 51                	je     140 <enclave_initialize+0x140>
  ef:	48 85 ed             	test   %rbp,%rbp
  f2:	0f 84 74 ff ff ff    	je     6c <enclave_initialize+0x6c>
  f8:	e8 00 00 00 00       	call   fd <enclave_initialize+0xfd>
  fd:	44 89 ef             	mov    %r13d,%edi
 100:	8b 30                	mov    (%rax),%esi
 102:	e8 00 00 00 00       	call   107 <enclave_initialize+0x107>
 107:	89 45 00             	mov    %eax,0x0(%rbp)
 10a:	e9 60 ff ff ff       	jmp    6f <enclave_initialize+0x6f>
 10f:	90                   	nop
 110:	48 89 14 24          	mov    %rdx,(%rsp)
 114:	e8 00 00 00 00       	call   119 <enclave_initialize+0x119>
 119:	48 8b 14 24          	mov    (%rsp),%rdx
 11d:	83 f8 ff             	cmp    $0xffffffff,%eax
 120:	41 89 c7             	mov    %eax,%r15d
 123:	0f 85 2e ff ff ff    	jne    57 <enclave_initialize+0x57>
 129:	48 85 ed             	test   %rbp,%rbp
 12c:	0f 84 3a ff ff ff    	je     6c <enclave_initialize+0x6c>
 132:	c7 45 00 0d 00 00 00 	movl   $0xd,0x0(%rbp)
 139:	e9 31 ff ff ff       	jmp    6f <enclave_initialize+0x6f>
 13e:	66 90                	xchg   %ax,%ax
 140:	48 8d 3d 00 00 00 00 	lea    0x0(%rip),%rdi        # 147 <enclave_initialize+0x147>
 147:	e8 00 00 00 00       	call   14c <enclave_initialize+0x14c>
 14c:	48 8b 15 00 00 00 00 	mov    0x0(%rip),%rdx        # 153 <enclave_initialize+0x153>
 153:	48 85 d2             	test   %rdx,%rdx
 156:	0f 84 73 02 00 00    	je     3cf <enclave_initialize+0x3cf>
 15c:	4c 8d 2d 00 00 00 00 	lea    0x0(%rip),%r13        # 163 <enclave_initialize+0x163>
 163:	48 89 d0             	mov    %rdx,%rax
 166:	4c 89 e9             	mov    %r13,%rcx
 169:	eb 11                	jmp    17c <enclave_initialize+0x17c>
 16b:	0f 1f 44 00 00       	nopl   0x0(%rax,%rax,1)
 170:	48 89 c1             	mov    %rax,%rcx
 173:	48 8b 40 10          	mov    0x10(%rax),%rax
 177:	48 85 c0             	test   %rax,%rax
 17a:	74 14                	je     190 <enclave_initialize+0x190>
 17c:	48 39 58 20          	cmp    %rbx,0x20(%rax)
 180:	73 ee                	jae    170 <enclave_initialize+0x170>
 182:	48 8b 40 18          	mov    0x18(%rax),%rax
 186:	eb ef                	jmp    177 <enclave_initialize+0x177>
 188:	0f 1f 84 00 00 00 00 	nopl   0x0(%rax,%rax,1)
 18f:	00 
 190:	4c 39 e9             	cmp    %r13,%rcx
 193:	74 2b                	je     1c0 <enclave_initialize+0x1c0>
 195:	48 39 59 20          	cmp    %rbx,0x20(%rcx)
 199:	77 25                	ja     1c0 <enclave_initialize+0x1c0>
 19b:	80 79 28 00          	cmpb   $0x0,0x28(%rcx)
 19f:	74 1f                	je     1c0 <enclave_initialize+0x1c0>
 1a1:	48 85 ed             	test   %rbp,%rbp
 1a4:	74 07                	je     1ad <enclave_initialize+0x1ad>
 1a6:	c7 45 00 0c 00 00 00 	movl   $0xc,0x0(%rbp)
 1ad:	48 8d 3d 00 00 00 00 	lea    0x0(%rip),%rdi        # 1b4 <enclave_initialize+0x1b4>
 1b4:	e8 00 00 00 00       	call   1b9 <enclave_initialize+0x1b9>
 1b9:	e9 b1 fe ff ff       	jmp    6f <enclave_initialize+0x6f>
 1be:	66 90                	xchg   %ax,%ax
 1c0:	4c 8d 25 00 00 00 00 	lea    0x0(%rip),%r12        # 1c7 <enclave_initialize+0x1c7>
 1c7:	eb 13                	jmp    1dc <enclave_initialize+0x1dc>
 1c9:	0f 1f 80 00 00 00 00 	nopl   0x0(%rax)
 1d0:	49 89 d4             	mov    %rdx,%r12
 1d3:	48 8b 52 10          	mov    0x10(%rdx),%rdx
 1d7:	48 85 d2             	test   %rdx,%rdx
 1da:	74 44                	je     220 <enclave_initialize+0x220>
 1dc:	48 39 5a 20          	cmp    %rbx,0x20(%rdx)
 1e0:	73 ee                	jae    1d0 <enclave_initialize+0x1d0>
 1e2:	48 8b 52 18          	mov    0x18(%rdx),%rdx
 1e6:	eb ef                	jmp    1d7 <enclave_initialize+0x1d7>
 1e8:	0f 1f 84 00 00 00 00 	nopl   0x0(%rax,%rax,1)
 1ef:	00 
 1f0:	8b 3d 00 00 00 00    	mov    0x0(%rip),%edi        # 1f6 <enclave_initialize+0x1f6>
 1f6:	48 8d 54 24 20       	lea    0x20(%rsp),%rdx
 1fb:	be 02 a4 10 40       	mov    $0x4010a402,%esi
 200:	31 c0                	xor    %eax,%eax
 202:	4c 89 6c 24 28       	mov    %r13,0x28(%rsp)
 207:	48 89 5c 24 20       	mov    %rbx,0x20(%rsp)
 20c:	e8 00 00 00 00       	call   211 <enclave_initialize+0x211>
 211:	41 89 c5             	mov    %eax,%r13d
 214:	e9 d1 fe ff ff       	jmp    ea <enclave_initialize+0xea>
 219:	0f 1f 80 00 00 00 00 	nopl   0x0(%rax)
 220:	4d 39 ec             	cmp    %r13,%r12
 223:	74 07                	je     22c <enclave_initialize+0x22c>
 225:	49 39 5c 24 20       	cmp    %rbx,0x20(%r12)
 22a:	76 61                	jbe    28d <enclave_initialize+0x28d>
 22c:	bf 30 00 00 00       	mov    $0x30,%edi
 231:	4d 89 e7             	mov    %r12,%r15
 234:	e8 00 00 00 00       	call   239 <enclave_initialize+0x239>
 239:	48 89 58 20          	mov    %rbx,0x20(%rax)
 23d:	48 8d 50 20          	lea    0x20(%rax),%rdx
 241:	4c 89 fe             	mov    %r15,%rsi
 244:	49 89 c4             	mov    %rax,%r12
 247:	c6 40 28 00          	movb   $0x0,0x28(%rax)
 24b:	48 8d 3d 00 00 00 00 	lea    0x0(%rip),%rdi        # 252 <enclave_initialize+0x252>
 252:	e8 00 00 00 00       	call   257 <enclave_initialize+0x257>
 257:	48 89 c3             	mov    %rax,%rbx
 25a:	48 85 d2             	test   %rdx,%rdx
 25d:	0f 84 5c 01 00 00    	je     3bf <enclave_initialize+0x3bf>
 263:	49 39 d5             	cmp    %rdx,%r13
 266:	74 09                	je     271 <enclave_initialize+0x271>
 268:	48 85 c0             	test   %rax,%rax
 26b:	0f 84 6d 01 00 00    	je     3de <enclave_initialize+0x3de>
 271:	bf 01 00 00 00       	mov    $0x1,%edi
 276:	48 8d 0d 00 00 00 00 	lea    0x0(%rip),%rcx        # 27d <enclave_initialize+0x27d>
 27d:	4c 89 e6             	mov    %r12,%rsi
 280:	e8 00 00 00 00       	call   285 <enclave_initialize+0x285>
 285:	48 83 05 00 00 00 00 	addq   $0x1,0x0(%rip)        # 28d <enclave_initialize+0x28d>
 28c:	01 
 28d:	41 c6 44 24 28 01    	movb   $0x1,0x28(%r12)
 293:	48 8d 3d 00 00 00 00 	lea    0x0(%rip),%rdi        # 29a <enclave_initialize+0x29a>
 29a:	e8 00 00 00 00       	call   29f <enclave_initialize+0x29f>
 29f:	48 85 ed             	test   %rbp,%rbp
 2a2:	74 07                	je     2ab <enclave_initialize+0x2ab>
 2a4:	c7 45 00 00 00 00 00 	movl   $0x0,0x0(%rbp)
 2ab:	45 89 f4             	mov    %r14d,%r12d
 2ae:	e9 bc fd ff ff       	jmp    6f <enclave_initialize+0x6f>
 2b3:	0f 1f 44 00 00       	nopl   0x0(%rax,%rax,1)
 2b8:	66 0f ef c0          	pxor   %xmm0,%xmm0
 2bc:	48 8d 3d 00 00 00 00 	lea    0x0(%rip),%rdi        # 2c3 <enclave_initialize+0x2c3>
 2c3:	0f 29 44 24 10       	movaps %xmm0,0x10(%rsp)
 2c8:	e8 00 00 00 00       	call   2cd <enclave_initialize+0x2cd>
 2cd:	4c 8b 3d 00 00 00 00 	mov    0x0(%rip),%r15        # 2d4 <enclave_initialize+0x2d4>
 2d4:	4d 85 ff             	test   %r15,%r15
 2d7:	74 32                	je     30b <enclave_initialize+0x30b>
 2d9:	48 8d 15 00 00 00 00 	lea    0x0(%rip),%rdx        # 2e0 <enclave_initialize+0x2e0>
 2e0:	48 89 d0             	mov    %rdx,%rax
 2e3:	eb 0f                	jmp    2f4 <enclave_initialize+0x2f4>
 2e5:	0f 1f 00             	nopl   (%rax)
 2e8:	4c 89 f8             	mov    %r15,%rax
 2eb:	4d 8b 7f 10          	mov    0x10(%r15),%r15
 2ef:	4d 85 ff             	test   %r15,%r15
 2f2:	74 0c                	je     300 <enclave_initialize+0x300>
 2f4:	49 39 5f 20          	cmp    %rbx,0x20(%r15)
 2f8:	73 ee                	jae    2e8 <enclave_initialize+0x2e8>
 2fa:	4d 8b 7f 18          	mov    0x18(%r15),%r15
 2fe:	eb ef                	jmp    2ef <enclave_initialize+0x2ef>
 300:	48 39 d0             	cmp    %rdx,%rax
 303:	74 06                	je     30b <enclave_initialize+0x30b>
 305:	48 39 58 20          	cmp    %rbx,0x20(%rax)
 309:	76 21                	jbe    32c <enclave_initialize+0x32c>
 30b:	48 8d 3d 00 00 00 00 	lea    0x0(%rip),%rdi        # 312 <enclave_initialize+0x312>
 312:	e8 00 00 00 00       	call   317 <enclave_initialize+0x317>
 317:	48 85 ed             	test   %rbp,%rbp
 31a:	0f 84 4f fd ff ff    	je     6f <enclave_initialize+0x6f>
 320:	c7 45 00 09 00 00 00 	movl   $0x9,0x0(%rbp)
 327:	e9 43 fd ff ff       	jmp    6f <enclave_initialize+0x6f>
 32c:	48 8b 50 28          	mov    0x28(%rax),%rdx
 330:	48 8b 40 30          	mov    0x30(%rax),%rax
 334:	48 8d 3d 00 00 00 00 	lea    0x0(%rip),%rdi        # 33b <enclave_initialize+0x33b>
 33b:	48 89 54 24 10       	mov    %rdx,0x10(%rsp)
 340:	48 89 44 24 18       	mov    %rax,0x18(%rsp)
 345:	e8 00 00 00 00       	call   34a <enclave_initialize+0x34a>
 34a:	4c 8d 44 24 40       	lea    0x40(%rsp),%r8
 34f:	4c 89 f8             	mov    %r15,%rax
 352:	b9 80 00 00 00       	mov    $0x80,%ecx
 357:	4c 89 c7             	mov    %r8,%rdi
 35a:	f3 48 ab             	rep stos %rax,%es:(%rdi)
 35d:	41 8b 45 28          	mov    0x28(%r13),%eax
 361:	85 c0                	test   %eax,%eax
 363:	75 2c                	jne    391 <enclave_initialize+0x391>
 365:	4c 8b 3d 00 00 00 00 	mov    0x0(%rip),%r15        # 36c <enclave_initialize+0x36c>
 36c:	49 8b 0f             	mov    (%r15),%rcx
 36f:	48 85 c9             	test   %rcx,%rcx
 372:	0f 84 e0 00 00 00    	je     458 <enclave_initialize+0x458>
 378:	4c 89 04 24          	mov    %r8,(%rsp)
 37c:	4c 89 c2             	mov    %r8,%rdx
 37f:	48 8d 74 24 10       	lea    0x10(%rsp),%rsi
 384:	4c 89 ef             	mov    %r13,%rdi
 387:	ff d1                	call   *%rcx
 389:	4c 8b 04 24          	mov    (%rsp),%r8
 38d:	85 c0                	test   %eax,%eax
 38f:	75 61                	jne    3f2 <enclave_initialize+0x3f2>
 391:	8b 3d 00 00 00 00    	mov    0x0(%rip),%edi        # 397 <enclave_initialize+0x397>
 397:	48 8d 54 24 20       	lea    0x20(%rsp),%rdx
 39c:	be 02 a4 18 40       	mov    $0x4018a402,%esi
 3a1:	31 c0                	xor    %eax,%eax
 3a3:	4c 89 6c 24 28       	mov    %r13,0x28(%rsp)
 3a8:	48 89 5c 24 20       	mov    %rbx,0x20(%rsp)
 3ad:	4c 89 44 24 30       	mov    %r8,0x30(%rsp)
 3b2:	e8 00 00 00 00       	call   3b7 <enclave_initialize+0x3b7>
 3b7:	41 89 c5             	mov    %eax,%r13d
 3ba:	e9 2b fd ff ff       	jmp    ea <enclave_initialize+0xea>
 3bf:	4c 89 e7             	mov    %r12,%rdi
 3c2:	49 89 dc             	mov    %rbx,%r12
 3c5:	e8 00 00 00 00       	call   3ca <enclave_initialize+0x3ca>
 3ca:	e9 be fe ff ff       	jmp    28d <enclave_initialize+0x28d>
 3cf:	4c 8d 2d 00 00 00 00 	lea    0x0(%rip),%r13        # 3d6 <enclave_initialize+0x3d6>
 3d6:	4d 89 ec             	mov    %r13,%r12
 3d9:	e9 4e fe ff ff       	jmp    22c <enclave_initialize+0x22c>
 3de:	31 ff                	xor    %edi,%edi
 3e0:	48 8b 42 20          	mov    0x20(%rdx),%rax
 3e4:	49 39 44 24 20       	cmp    %rax,0x20(%r12)
 3e9:	40 0f 92 c7          	setb   %dil
 3ed:	e9 84 fe ff ff       	jmp    276 <enclave_initialize+0x276>
 3f2:	48 85 ed             	test   %rbp,%rbp
 3f5:	0f 84 74 fc ff ff    	je     6f <enclave_initialize+0x6f>
 3fb:	3d 01 40 00 00       	cmp    $0x4001,%eax
 400:	0f 84 eb 00 00 00    	je     4f1 <enclave_initialize+0x4f1>
 406:	77 30                	ja     438 <enclave_initialize+0x438>
 408:	ba 0b 00 00 00       	mov    $0xb,%edx
 40d:	3d 05 20 00 00       	cmp    $0x2005,%eax
 412:	74 1c                	je     430 <enclave_initialize+0x430>
 414:	ba 01 00 00 00       	mov    $0x1,%edx
 419:	3d 06 20 00 00       	cmp    $0x2006,%eax
 41e:	74 10                	je     430 <enclave_initialize+0x430>
 420:	83 f8 02             	cmp    $0x2,%eax
 423:	ba 01 10 00 00       	mov    $0x1001,%edx
 428:	b8 09 00 00 00       	mov    $0x9,%eax
 42d:	0f 44 d0             	cmove  %eax,%edx
 430:	89 55 00             	mov    %edx,0x0(%rbp)
 433:	e9 37 fc ff ff       	jmp    6f <enclave_initialize+0x6f>
 438:	ba 11 00 00 00       	mov    $0x11,%edx
 43d:	3d 02 40 00 00       	cmp    $0x4002,%eax
 442:	74 ec                	je     430 <enclave_initialize+0x430>
 444:	3d 04 40 00 00       	cmp    $0x4004,%eax
 449:	ba 01 10 00 00       	mov    $0x1001,%edx
 44e:	b8 06 00 00 00       	mov    $0x6,%eax
 453:	0f 44 d0             	cmove  %eax,%edx
 456:	eb d8                	jmp    430 <enclave_initialize+0x430>
 458:	48 8d 3d 00 00 00 00 	lea    0x0(%rip),%rdi        # 45f <enclave_initialize+0x45f>
 45f:	4c 89 04 24          	mov    %r8,(%rsp)
 463:	e8 00 00 00 00       	call   468 <enclave_initialize+0x468>
 468:	49 8b 0f             	mov    (%r15),%rcx
 46b:	4c 8b 04 24          	mov    (%rsp),%r8
 46f:	48 85 c9             	test   %rcx,%rcx
 472:	74 23                	je     497 <enclave_initialize+0x497>
 474:	48 8d 3d 00 00 00 00 	lea    0x0(%rip),%rdi        # 47b <enclave_initialize+0x47b>
 47b:	4c 89 44 24 08       	mov    %r8,0x8(%rsp)
 480:	48 89 0c 24          	mov    %rcx,(%rsp)
 484:	e8 00 00 00 00       	call   489 <enclave_initialize+0x489>
 489:	48 8b 0c 24          	mov    (%rsp),%rcx
 48d:	4c 8b 44 24 08       	mov    0x8(%rsp),%r8
 492:	e9 e1 fe ff ff       	jmp    378 <enclave_initialize+0x378>
 497:	48 83 3d 00 00 00 00 	cmpq   $0x0,0x0(%rip)        # 49f <enclave_initialize+0x49f>
 49e:	00 
 49f:	74 5a                	je     4fb <enclave_initialize+0x4fb>
 4a1:	48 8b 3d 00 00 00 00 	mov    0x0(%rip),%rdi        # 4a8 <enclave_initialize+0x4a8>
 4a8:	48 8d 35 00 00 00 00 	lea    0x0(%rip),%rsi        # 4af <enclave_initialize+0x4af>
 4af:	4c 89 04 24          	mov    %r8,(%rsp)
 4b3:	e8 00 00 00 00       	call   4b8 <enclave_initialize+0x4b8>
 4b8:	48 8d 3d 00 00 00 00 	lea    0x0(%rip),%rdi        # 4bf <enclave_initialize+0x4bf>
 4bf:	49 89 07             	mov    %rax,(%r15)
 4c2:	e8 00 00 00 00       	call   4c7 <enclave_initialize+0x4c7>
 4c7:	49 8b 0f             	mov    (%r15),%rcx
 4ca:	4c 8b 04 24          	mov    (%rsp),%r8
 4ce:	48 85 c9             	test   %rcx,%rcx
 4d1:	0f 85 a1 fe ff ff    	jne    378 <enclave_initialize+0x378>
 4d7:	48 85 ed             	test   %rbp,%rbp
 4da:	0f 84 8f fb ff ff    	je     6f <enclave_initialize+0x6f>
 4e0:	c7 45 00 01 10 00 00 	movl   $0x1001,0x0(%rbp)
 4e7:	e9 83 fb ff ff       	jmp    6f <enclave_initialize+0x6f>
 4ec:	e8 00 00 00 00       	call   4f1 <enclave_initialize+0x4f1>
 4f1:	ba 12 00 00 00       	mov    $0x12,%edx
 4f6:	e9 35 ff ff ff       	jmp    430 <enclave_initialize+0x430>
 4fb:	be 01 00 00 00       	mov    $0x1,%esi
 500:	48 8d 3d 00 00 00 00 	lea    0x0(%rip),%rdi        # 507 <enclave_initialize+0x507>
 507:	4c 89 04 24          	mov    %r8,(%rsp)
 50b:	e8 00 00 00 00       	call   510 <enclave_initialize+0x510>
 510:	4c 8b 04 24          	mov    (%rsp),%r8
 514:	48 85 c0             	test   %rax,%rax
 517:	48 89 05 00 00 00 00 	mov    %rax,0x0(%rip)        # 51e <enclave_initialize+0x51e>
 51e:	75 81                	jne    4a1 <enclave_initialize+0x4a1>
 520:	48 8d 3d 00 00 00 00 	lea    0x0(%rip),%rdi        # 527 <enclave_initialize+0x527>
 527:	e8 00 00 00 00       	call   52c <enclave_initialize+0x52c>
 52c:	eb a9                	jmp    4d7 <enclave_initialize+0x4d7>
 52e:	f3 0f 1e fa          	endbr64 
 532:	48 89 c5             	mov    %rax,%rbp
 535:	e9 00 00 00 00       	jmp    53a <.LC11+0x514>

Disassembly of section .text.startup._GLOBAL__sub_I_sgx_enclave_common.cpp:

0000000000000000 <_GLOBAL__sub_I_sgx_enclave_common.cpp>:
   0:	f3 0f 1e fa          	endbr64 
   4:	55                   	push   %rbp
   5:	48 8d 3d 00 00 00 00 	lea    0x0(%rip),%rdi        # c <_GLOBAL__sub_I_sgx_enclave_common.cpp+0xc>
   c:	e8 00 00 00 00       	call   11 <_GLOBAL__sub_I_sgx_enclave_common.cpp+0x11>
  11:	48 8b 2d 00 00 00 00 	mov    0x0(%rip),%rbp        # 18 <_GLOBAL__sub_I_sgx_enclave_common.cpp+0x18>
  18:	48 8d 15 00 00 00 00 	lea    0x0(%rip),%rdx        # 1f <_GLOBAL__sub_I_sgx_enclave_common.cpp+0x1f>
  1f:	48 8d 35 00 00 00 00 	lea    0x0(%rip),%rsi        # 26 <_GLOBAL__sub_I_sgx_enclave_common.cpp+0x26>
  26:	48 89 ef             	mov    %rbp,%rdi
  29:	e8 00 00 00 00       	call   2e <_GLOBAL__sub_I_sgx_enclave_common.cpp+0x2e>
  2e:	48 8d 3d 00 00 00 00 	lea    0x0(%rip),%rdi        # 35 <_GLOBAL__sub_I_sgx_enclave_common.cpp+0x35>
  35:	e8 00 00 00 00       	call   3a <_GLOBAL__sub_I_sgx_enclave_common.cpp+0x3a>
  3a:	48 8d 15 00 00 00 00 	lea    0x0(%rip),%rdx        # 41 <_GLOBAL__sub_I_sgx_enclave_common.cpp+0x41>
  41:	48 8d 35 00 00 00 00 	lea    0x0(%rip),%rsi        # 48 <_GLOBAL__sub_I_sgx_enclave_common.cpp+0x48>
  48:	48 89 ef             	mov    %rbp,%rdi
  4b:	e8 00 00 00 00       	call   50 <_GLOBAL__sub_I_sgx_enclave_common.cpp+0x50>
  50:	48 8d 3d 00 00 00 00 	lea    0x0(%rip),%rdi        # 57 <_GLOBAL__sub_I_sgx_enclave_common.cpp+0x57>
  57:	e8 00 00 00 00       	call   5c <_GLOBAL__sub_I_sgx_enclave_common.cpp+0x5c>
  5c:	48 89 ef             	mov    %rbp,%rdi
  5f:	48 8d 15 00 00 00 00 	lea    0x0(%rip),%rdx        # 66 <_GLOBAL__sub_I_sgx_enclave_common.cpp+0x66>
  66:	48 8d 35 00 00 00 00 	lea    0x0(%rip),%rsi        # 6d <_GLOBAL__sub_I_sgx_enclave_common.cpp+0x6d>
  6d:	e8 00 00 00 00       	call   72 <_GLOBAL__sub_I_sgx_enclave_common.cpp+0x72>
  72:	48 8d 05 00 00 00 00 	lea    0x0(%rip),%rax        # 79 <_GLOBAL__sub_I_sgx_enclave_common.cpp+0x79>
  79:	48 8b 3d 00 00 00 00 	mov    0x0(%rip),%rdi        # 80 <_GLOBAL__sub_I_sgx_enclave_common.cpp+0x80>
  80:	48 8d 15 00 00 00 00 	lea    0x0(%rip),%rdx        # 87 <_GLOBAL__sub_I_sgx_enclave_common.cpp+0x87>
  87:	48 8d 70 f8          	lea    -0x8(%rax),%rsi
  8b:	48 89 05 00 00 00 00 	mov    %rax,0x0(%rip)        # 92 <_GLOBAL__sub_I_sgx_enclave_common.cpp+0x92>
  92:	c7 05 00 00 00 00 00 	movl   $0x0,0x0(%rip)        # 9c <_GLOBAL__sub_I_sgx_enclave_common.cpp+0x9c>
  99:	00 00 00 
  9c:	48 c7 05 00 00 00 00 	movq   $0x0,0x0(%rip)        # a7 <_GLOBAL__sub_I_sgx_enclave_common.cpp+0xa7>
  a3:	00 00 00 00 
  a7:	48 89 05 00 00 00 00 	mov    %rax,0x0(%rip)        # ae <_GLOBAL__sub_I_sgx_enclave_common.cpp+0xae>
  ae:	48 c7 05 00 00 00 00 	movq   $0x0,0x0(%rip)        # b9 <_GLOBAL__sub_I_sgx_enclave_common.cpp+0xb9>
  b5:	00 00 00 00 
  b9:	e8 00 00 00 00       	call   be <_GLOBAL__sub_I_sgx_enclave_common.cpp+0xbe>
  be:	48 8d 05 00 00 00 00 	lea    0x0(%rip),%rax        # c5 <_GLOBAL__sub_I_sgx_enclave_common.cpp+0xc5>
  c5:	48 8b 3d 00 00 00 00 	mov    0x0(%rip),%rdi        # cc <_GLOBAL__sub_I_sgx_enclave_common.cpp+0xcc>
  cc:	48 8d 15 00 00 00 00 	lea    0x0(%rip),%rdx        # d3 <_GLOBAL__sub_I_sgx_enclave_common.cpp+0xd3>
  d3:	48 8d 70 f8          	lea    -0x8(%rax),%rsi
  d7:	48 89 05 00 00 00 00 	mov    %rax,0x0(%rip)        # de <_GLOBAL__sub_I_sgx_enclave_common.cpp+0xde>
  de:	c7 05 00 00 00 00 00 	movl   $0x0,0x0(%rip)        # e8 <_GLOBAL__sub_I_sgx_enclave_common.cpp+0xe8>
  e5:	00 00 00 
  e8:	48 c7 05 00 00 00 00 	movq   $0x0,0x0(%rip)        # f3 <_GLOBAL__sub_I_sgx_enclave_common.cpp+0xf3>
  ef:	00 00 00 00 
  f3:	48 89 05 00 00 00 00 	mov    %rax,0x0(%rip)        # fa <_GLOBAL__sub_I_sgx_enclave_common.cpp+0xfa>
  fa:	48 c7 05 00 00 00 00 	movq   $0x0,0x0(%rip)        # 105 <_GLOBAL__sub_I_sgx_enclave_common.cpp+0x105>
 101:	00 00 00 00 
 105:	e8 00 00 00 00       	call   10a <_GLOBAL__sub_I_sgx_enclave_common.cpp+0x10a>
 10a:	48 8d 05 00 00 00 00 	lea    0x0(%rip),%rax        # 111 <_GLOBAL__sub_I_sgx_enclave_common.cpp+0x111>
 111:	48 8b 3d 00 00 00 00 	mov    0x0(%rip),%rdi        # 118 <_GLOBAL__sub_I_sgx_enclave_common.cpp+0x118>
 118:	48 8d 15 00 00 00 00 	lea    0x0(%rip),%rdx        # 11f <_GLOBAL__sub_I_sgx_enclave_common.cpp+0x11f>
 11f:	48 8d 70 f8          	lea    -0x8(%rax),%rsi
 123:	48 89 05 00 00 00 00 	mov    %rax,0x0(%rip)        # 12a <_GLOBAL__sub_I_sgx_enclave_common.cpp+0x12a>
 12a:	c7 05 00 00 00 00 00 	movl   $0x0,0x0(%rip)        # 134 <_GLOBAL__sub_I_sgx_enclave_common.cpp+0x134>
 131:	00 00 00 
 134:	48 c7 05 00 00 00 00 	movq   $0x0,0x0(%rip)        # 13f <_GLOBAL__sub_I_sgx_enclave_common.cpp+0x13f>
 13b:	00 00 00 00 
 13f:	48 89 05 00 00 00 00 	mov    %rax,0x0(%rip)        # 146 <_GLOBAL__sub_I_sgx_enclave_common.cpp+0x146>
 146:	48 c7 05 00 00 00 00 	movq   $0x0,0x0(%rip)        # 151 <_GLOBAL__sub_I_sgx_enclave_common.cpp+0x151>
 14d:	00 00 00 00 
 151:	e8 00 00 00 00       	call   156 <_GLOBAL__sub_I_sgx_enclave_common.cpp+0x156>
 156:	48 8d 05 00 00 00 00 	lea    0x0(%rip),%rax        # 15d <_GLOBAL__sub_I_sgx_enclave_common.cpp+0x15d>
 15d:	48 8b 3d 00 00 00 00 	mov    0x0(%rip),%rdi        # 164 <_GLOBAL__sub_I_sgx_enclave_common.cpp+0x164>
 164:	48 8d 15 00 00 00 00 	lea    0x0(%rip),%rdx        # 16b <_GLOBAL__sub_I_sgx_enclave_common.cpp+0x16b>
 16b:	48 8d 70 f8          	lea    -0x8(%rax),%rsi
 16f:	48 89 05 00 00 00 00 	mov    %rax,0x0(%rip)        # 176 <_GLOBAL__sub_I_sgx_enclave_common.cpp+0x176>
 176:	c7 05 00 00 00 00 00 	movl   $0x0,0x0(%rip)        # 180 <_GLOBAL__sub_I_sgx_enclave_common.cpp+0x180>
 17d:	00 00 00 
 180:	48 c7 05 00 00 00 00 	movq   $0x0,0x0(%rip)        # 18b <_GLOBAL__sub_I_sgx_enclave_common.cpp+0x18b>
 187:	00 00 00 00 
 18b:	48 89 05 00 00 00 00 	mov    %rax,0x0(%rip)        # 192 <_GLOBAL__sub_I_sgx_enclave_common.cpp+0x192>
 192:	48 c7 05 00 00 00 00 	movq   $0x0,0x0(%rip)        # 19d <_GLOBAL__sub_I_sgx_enclave_common.cpp+0x19d>
 199:	00 00 00 00 
 19d:	e8 00 00 00 00       	call   1a2 <_GLOBAL__sub_I_sgx_enclave_common.cpp+0x1a2>
 1a2:	48 8d 05 00 00 00 00 	lea    0x0(%rip),%rax        # 1a9 <_GLOBAL__sub_I_sgx_enclave_common.cpp+0x1a9>
 1a9:	48 8b 3d 00 00 00 00 	mov    0x0(%rip),%rdi        # 1b0 <_GLOBAL__sub_I_sgx_enclave_common.cpp+0x1b0>
 1b0:	48 8d 15 00 00 00 00 	lea    0x0(%rip),%rdx        # 1b7 <_GLOBAL__sub_I_sgx_enclave_common.cpp+0x1b7>
 1b7:	48 8d 70 f8          	lea    -0x8(%rax),%rsi
 1bb:	48 89 05 00 00 00 00 	mov    %rax,0x0(%rip)        # 1c2 <_GLOBAL__sub_I_sgx_enclave_common.cpp+0x1c2>
 1c2:	c7 05 00 00 00 00 00 	movl   $0x0,0x0(%rip)        # 1cc <_GLOBAL__sub_I_sgx_enclave_common.cpp+0x1cc>
 1c9:	00 00 00 
 1cc:	48 c7 05 00 00 00 00 	movq   $0x0,0x0(%rip)        # 1d7 <_GLOBAL__sub_I_sgx_enclave_common.cpp+0x1d7>
 1d3:	00 00 00 00 
 1d7:	48 89 05 00 00 00 00 	mov    %rax,0x0(%rip)        # 1de <_GLOBAL__sub_I_sgx_enclave_common.cpp+0x1de>
 1de:	48 c7 05 00 00 00 00 	movq   $0x0,0x0(%rip)        # 1e9 <_GLOBAL__sub_I_sgx_enclave_common.cpp+0x1e9>
 1e5:	00 00 00 00 
 1e9:	e8 00 00 00 00       	call   1ee <_GLOBAL__sub_I_sgx_enclave_common.cpp+0x1ee>
 1ee:	48 8d 05 00 00 00 00 	lea    0x0(%rip),%rax        # 1f5 <_GLOBAL__sub_I_sgx_enclave_common.cpp+0x1f5>
 1f5:	48 8b 3d 00 00 00 00 	mov    0x0(%rip),%rdi        # 1fc <_GLOBAL__sub_I_sgx_enclave_common.cpp+0x1fc>
 1fc:	5d                   	pop    %rbp
 1fd:	48 8d 15 00 00 00 00 	lea    0x0(%rip),%rdx        # 204 <_GLOBAL__sub_I_sgx_enclave_common.cpp+0x204>
 204:	48 8d 70 f8          	lea    -0x8(%rax),%rsi
 208:	c7 05 00 00 00 00 00 	movl   $0x0,0x0(%rip)        # 212 <_GLOBAL__sub_I_sgx_enclave_common.cpp+0x212>
 20f:	00 00 00 
 212:	48 c7 05 00 00 00 00 	movq   $0x0,0x0(%rip)        # 21d <_GLOBAL__sub_I_sgx_enclave_common.cpp+0x21d>
 219:	00 00 00 00 
 21d:	48 89 05 00 00 00 00 	mov    %rax,0x0(%rip)        # 224 <_GLOBAL__sub_I_sgx_enclave_common.cpp+0x224>
 224:	48 89 05 00 00 00 00 	mov    %rax,0x0(%rip)        # 22b <_GLOBAL__sub_I_sgx_enclave_common.cpp+0x22b>
 22b:	48 c7 05 00 00 00 00 	movq   $0x0,0x0(%rip)        # 236 <_GLOBAL__sub_I_sgx_enclave_common.cpp+0x236>
 232:	00 00 00 00 
 236:	e9 00 00 00 00       	jmp    23b <.LC11+0x215>
